(dp1
S'u\xc9'
p2
F8.5108526670257945
sS'\x9f?'
p3
F33.812777386757041
sS'tz'
p4
F16.907989905461534
sS'ty'
p5
F9.0383505839045686
sS'tv'
p6
F21.553916955347287
sS'tt'
p7
F11.197332514612746
sS'\xab@'
p8
F33.812777386757041
sS'-i'
p9
F21.614025421563309
sS'ts'
p10
F13.992590631874648
sS'tp'
p11
F23.708178633192674
sS'\xabc'
p12
F33.812777386757041
sS'\xabb'
p13
F11.643797758766308
sS'\xaba'
p14
F7.380150285045679
sS'\xabg'
p15
F11.884964347703292
sS'\xabf'
p16
F16.854893160092946
sS'\xabe'
p17
F7.5560400863850505
sS'\xabd'
p18
F9.6931481120766314
sS'm-'
p19
F33.812777386757041
sS'\xabj'
p20
F12.771513284073713
sS'm/'
p21
F33.812777386757041
sS'\xabh'
p22
F16.181650078055164
sS'\xabo'
p23
F11.601737224631885
sS'\xabn'
p24
F11.846288481035181
sS'\xabm'
p25
F9.3219372186357212
sS'\xabl'
p26
F33.812777386757041
sS'\xabs'
p27
F10.690104029760912
sS'm4'
p28
F33.812777386757041
sS'\xabp'
p29
F16.865129035123775
sS'\xabv'
p30
F15.376940307575433
sS'\xabu'
p31
F10.037194733366702
sS'\xabt'
p32
F11.227323099484158
sS'\xabz'
p33
F21.361308673809685
sS'\xaby'
p34
F9.6244697864752116
sS'\xab~'
p35
F33.812777386757041
sS'm:'
p36
F33.812777386757041
sS'm@'
p37
F33.812777386757041
sS'me'
p38
F7.4702046454691695
sS'md'
p39
F9.5044391205029246
sS'mg'
p40
F19.163240512886745
sS'\xab '
p41
F18.317140928738826
sS'ma'
p42
F6.4352189730159344
sS'mc'
p43
F19.335967908106888
sS'mb'
p44
F12.62293051271168
sS'mm'
p45
F12.55881855708936
sS'ml'
p46
F17.701295269994624
sS'mo'
p47
F13.020126081297557
sS'mn'
p48
F13.045688107587186
sS'\xab/'
p49
F33.812777386757041
sS'mh'
p50
F16.449523819155523
sS'\xab-'
p51
F33.812777386757041
sS'mj'
p52
F15.259024364009662
sS'mu'
p53
F10.643124984459527
sS'mt'
p54
F18.390811204608475
sS'mv'
p55
F20.019072482812554
sS'mp'
p56
F13.431250277659542
sS'ms'
p57
F11.330504874957695
sS'\xab4'
p58
F33.812777386757041
sS'\xab:'
p59
F24.581556206045857
sS'm~'
p60
F33.812777386757041
sS'my'
p61
F10.720594976386108
sS'mz'
p62
F16.247816668487076
sS'\xab\xc3'
p63
F16.15628967509911
sS'm\x83'
p64
F33.812777386757041
sS'\xab\xca'
p65
F20.614178875271996
sS'\xab\xc9'
p66
F8.8993652494981017
sS'm\x92'
p67
F33.812777386757041
sS'm\x9f'
p68
F33.812777386757041
sS'm\xaf'
p69
F33.812777386757041
sS'm\xab'
p70
F33.812777386757041
sS'm\xbe'
p71
F33.812777386757041
sS'm\xb8'
p72
F33.812777386757041
sS'\xab\x83'
p73
F33.812777386757041
sS'm\xc3'
p74
F15.586774509867938
sS'm\xc9'
p75
F10.630292556146651
sS'm\xca'
p76
F15.007156305066847
sS'\xab\x92'
p77
F33.812777386757041
sS'\xab\x9f'
p78
F33.812777386757041
sS'\xab\xab'
p79
F33.812777386757041
sS'\xab\xaf'
p80
F33.812777386757041
sS'\xab\xb8'
p81
F33.812777386757041
sS'\xab\xbe'
p82
F33.812777386757041
sS'\x9f~'
p83
F33.812777386757041
sS'- '
p84
F33.812777386757041
sS'\x9fy'
p85
F26.161725695578113
sS'\x9fv'
p86
F33.812777386757041
sS't4'
p87
F33.812777386757041
sS't3'
p88
F33.812777386757041
sS'\x9fn'
p89
F33.812777386757041
sS'\x9fl'
p90
F33.812777386757041
sS'\x9fi'
p91
F33.812777386757041
sS'\x9fe'
p92
F33.812777386757041
sS'\x9fc'
p93
F33.812777386757041
sS't#'
p94
F6.8390099086513887
sS'\x9fa'
p95
F16.811358196254915
sS'\xc3\x83'
p96
F33.812777386757041
sS'\xc3\x9f'
p97
F33.812777386757041
sS'\xc3\x92'
p98
F33.812777386757041
sS'\xc3\xab'
p99
F33.812777386757041
sS'\xc3\xaf'
p100
F33.812777386757041
sS'\xc3\xb8'
p101
F7.1467389754371231
sS'\xc3\xbe'
p102
F33.812777386757041
sS'\xc3\xca'
p103
F33.812777386757041
sS'\xc3\xc9'
p104
F33.812777386757041
sS'\xc3\xc3'
p105
F33.812777386757041
sS'\xc3/'
p106
F33.812777386757041
sS'\xc3-'
p107
F33.812777386757041
sS'\xc3#'
p108
F33.812777386757041
sS'\xc3 '
p109
F33.812777386757041
sS'\xc3:'
p110
F33.812777386757041
sS'\xc3?'
p111
F33.812777386757041
sS'\xc33'
p112
F33.812777386757041
sS'\xc34'
p113
F33.812777386757041
sS'\x9f\xbe'
p114
F33.812777386757041
sS'\xc3@'
p115
F33.812777386757041
sS'\xc3k'
p116
F33.812777386757041
sS'\xc3j'
p117
F33.812777386757041
sS'\xc3i'
p118
F33.812777386757041
sS'\xc3h'
p119
F33.812777386757041
sS'\xc3o'
p120
F33.812777386757041
sS'\xc3n'
p121
F33.812777386757041
sS'\xc3m'
p122
F33.812777386757041
sS'\xc3l'
p123
F33.812777386757041
sS'\xc3c'
p124
F33.812777386757041
sS'\xc3b'
p125
F33.812777386757041
sS'\xc3a'
p126
F33.812777386757041
sS'\x9f\xb8'
p127
F33.812777386757041
sS'\xc3g'
p128
F33.812777386757041
sS'\xc3f'
p129
F33.812777386757041
sS'\xc3e'
p130
F33.812777386757041
sS'\xc3d'
p131
F33.812777386757041
sS'\xc3z'
p132
F33.812777386757041
sS'\xc3y'
p133
F33.812777386757041
sS'\xc3~'
p134
F33.812777386757041
sS'\xc3s'
p135
F33.812777386757041
sS'\xc3p'
p136
F33.812777386757041
sS'\xc3v'
p137
F33.812777386757041
sS'\xc3u'
p138
F33.812777386757041
sS'\xc3t'
p139
F33.812777386757041
sS'\xbe\xb8'
p140
F33.812777386757041
sS'd/'
p141
F33.812777386757041
sS'd-'
p142
F33.812777386757041
sS'\xbe\xbe'
p143
F33.812777386757041
sS'd#'
p144
F14.175981091073918
sS'd '
p145
F33.812777386757041
sS'd?'
p146
F33.812777386757041
sS'\xbe\xab'
p147
F33.812777386757041
sS'd:'
p148
F33.812777386757041
sS'\xbe\xaf'
p149
F33.812777386757041
sS'd4'
p150
F33.812777386757041
sS'd3'
p151
F33.812777386757041
sS'\xbe\x9f'
p152
F33.812777386757041
sS'\xbe\x92'
p153
F33.812777386757041
sS'@v'
p154
F33.812777386757041
sS'\xbe\x83'
p155
F33.812777386757041
sS'dn'
p156
F19.08671892063127
sS'do'
p157
F9.2597898134438417
sS'dl'
p158
F33.812777386757041
sS'dm'
p159
F19.024211976427743
sS'dj'
p160
F14.692425588154897
sS'dk'
p161
F33.812777386757041
sS'dh'
p162
F25.16531896030212
sS'di'
p163
F7.7454010261916526
sS'df'
p164
F33.812777386757041
sS'dg'
p165
F33.812777386757041
sS'dd'
p166
F13.135927591893541
sS'de'
p167
F6.7295224652570269
sS'db'
p168
F17.744733908389239
sS'dc'
p169
F33.812777386757041
sS'da'
p170
F7.1067142659048992
sS'd~'
p171
F33.812777386757041
sS'dz'
p172
F33.812777386757041
sS'dy'
p173
F10.183179191235247
sS'dv'
p174
F16.076818173234145
sS'dt'
p175
F33.812777386757041
sS'du'
p176
F9.1403513433662784
sS'ds'
p177
F20.614178875271996
sS'dp'
p178
F33.812777386757041
sS'd@'
p179
F33.812777386757041
sS'\xbe\xc9'
p180
F9.3749051403926273
sS'\xbe\xca'
p181
F10.62791520678716
sS'\xbe\xc3'
p182
F17.54685106932941
sS'd\xaf'
p183
F33.812777386757041
sS'\xbe:'
p184
F33.812777386757041
sS'd\xab'
p185
F33.812777386757041
sS'\xbe?'
p186
F33.812777386757041
sS'\xbe3'
p187
F33.812777386757041
sS'\xbe4'
p188
F33.812777386757041
sS'd\xbe'
p189
F33.812777386757041
sS'\xbe-'
p190
F33.812777386757041
sS'd\xb8'
p191
F33.812777386757041
sS'\xbe/'
p192
F33.812777386757041
sS'\xbe '
p193
F33.812777386757041
sS'\xbe#'
p194
F5.7545895099852373
sS'd\x83'
p195
F33.812777386757041
sS'd\x9f'
p196
F33.812777386757041
sS'd\x92'
p197
F33.812777386757041
sS'\xbey'
p198
F11.566367014625996
sS'\xbez'
p199
F14.744752283175629
sS'\xbe~'
p200
F33.812777386757041
sS'\xbep'
p201
F14.857737698098541
sS'\xbes'
p202
F11.916033686410449
sS'\xbet'
p203
F8.9791786161268181
sS'\xbeu'
p204
F9.1181478137040184
sS'\xbev'
p205
F14.574594260111359
sS'\xbeh'
p206
F10.226601313737977
sS'\xbei'
p207
F8.1798427149141979
sS'\xbej'
p208
F14.817150992942722
sS'\xbek'
p209
F9.2277875410535515
sS'\xbel'
p210
F21.959077966456825
sS'\xbem'
p211
F9.5759021034453777
sS'\xben'
p212
F13.557549373634378
sS'\xbeo'
p213
F10.861346632209656
sS'\xbea'
p214
F7.1820208888421622
sS'\xbeb'
p215
F12.169713470265279
sS'\xbec'
p216
F33.812777386757041
sS'\xbed'
p217
F9.6327042654568071
sS'\xbee'
p218
F8.6584080810180275
sS'\xbef'
p219
F14.152285249233078
sS'\xbeg'
p220
F12.724293855773301
sS'd\xca'
p221
F6.9468987213937883
sS'd\xc9'
p222
F9.6122878433811909
sS'd\xc3'
p223
F11.565555355679788
sS'\xbe@'
p224
F33.812777386757041
sS'i\xc9'
p225
F6.5062814947991194
sS'i\xca'
p226
F9.39396681823664
sS'i\xc3'
p227
F33.812777386757041
sS'i\xb8'
p228
F33.812777386757041
sS'i\xbe'
p229
F33.812777386757041
sS'i\xab'
p230
F33.812777386757041
sS'i\xaf'
p231
F33.812777386757041
sS'i\x9f'
p232
F33.812777386757041
sS'i\x92'
p233
F33.812777386757041
sS'i\x83'
p234
F33.812777386757041
sS'iy'
p235
F21.583658166098449
sS'iz'
p236
F8.7708538851290765
sS'i~'
p237
F33.812777386757041
sS'ip'
p238
F10.691067927999464
sS'is'
p239
F9.7983358632342235
sS'iu'
p240
F24.844110593561837
sS'it'
p241
F7.152316898805954
sS'iv'
p242
F14.549615948664702
sS'ii'
p243
F15.37775423762311
sS'ih'
p244
F11.893814817997093
sS'ik'
p245
F8.6366908112893004
sS'ij'
p246
F8.5358266007917489
sS'im'
p247
F7.6618640665593389
sS'il'
p248
F14.454244223447052
sS'io'
p249
F21.018970895301273
sS'in'
p250
F7.091519976166893
sS'ia'
p251
F15.018853443657827
sS'ic'
p252
F15.756346057835236
sS'ib'
p253
F9.0026011226734379
sS'ie'
p254
F12.183434553150551
sS'id'
p255
F10.917050315508616
sS'ig'
p256
F15.027449448376654
sS'if'
p257
F10.906991388387791
sS'@3'
p258
F33.812777386757041
sS'i@'
p259
F33.812777386757041
sS'i:'
p260
F7.5240051953521787
sS'i?'
p261
F33.812777386757041
sS't/'
p262
F33.812777386757041
sS'i3'
p263
F22.03922604032854
sS'i4'
p264
F33.812777386757041
sS'i-'
p265
F33.812777386757041
sS'i/'
p266
F33.812777386757041
sS'i '
p267
F21.387299199111716
sS'i#'
p268
F6.1250888652338222
sS'@?'
p269
F33.812777386757041
sS'33'
p270
F33.812777386757041
sS'\x9f#'
p271
F33.812777386757041
sS'm '
p272
F33.812777386757041
sS'm#'
p273
F6.667670993933033
sS'\x9f '
p274
F33.812777386757041
sS'\xabk'
p275
F9.8013357262299472
sS'\xabi'
p276
F8.5088904399363461
sS'n\xc9'
p277
F8.300855236846056
sS'n\xca'
p278
F14.993368527683176
sS'n\xc3'
p279
F16.173146981013879
sS'm3'
p280
F33.812777386757041
sS'n\x83'
p281
F33.812777386757041
sS'n\x9f'
p282
F33.812777386757041
sS'n\x92'
p283
F33.812777386757041
sS'm?'
p284
F33.812777386757041
sS'n\xab'
p285
F33.812777386757041
sS'3/'
p286
F22.03922604032854
sS'n\xaf'
p287
F33.812777386757041
sS'n\xb8'
p288
F33.812777386757041
sS'n\xbe'
p289
F33.812777386757041
sS'n@'
p290
F33.812777386757041
sS'nh'
p291
F18.815730253044428
sS'ni'
p292
F8.3779427469883601
sS'nj'
p293
F12.083531315035748
sS'nk'
p294
F11.362522367063027
sS'nl'
p295
F33.812777386757041
sS'nm'
p296
F11.396786816530597
sS'nn'
p297
F11.250337201502159
sS'no'
p298
F11.996258910073561
sS'na'
p299
F8.8531259053397253
sS'nb'
p300
F14.591962171075146
sS'nc'
p301
F18.535889660371573
sS'nd'
p302
F7.906686365108702
sS'ne'
p303
F7.8665589224635255
sS'nf'
p304
F15.863423704783957
sS'ng'
p305
F11.163647321083833
sS'ny'
p306
F12.357445650812512
sS'nz'
p307
F13.850659440802374
sS'n~'
p308
F33.812777386757041
sS'np'
p309
F18.055152989741426
sS'ns'
p310
F10.542399212423984
sS'nt'
p311
F10.466680724511152
sS'nu'
p312
F8.4915834662026555
sS'nv'
p313
F18.174539472262737
sS'n-'
p314
F21.614025421563309
sS'n/'
p315
F33.812777386757041
sS'n '
p316
F19.811281225836304
sS'n#'
p317
F5.182897599989019
sS'n:'
p318
F33.812777386757041
sS'n?'
p319
F33.812777386757041
sS'n3'
p320
F33.812777386757041
sS'n4'
p321
F33.812777386757041
sS':-'
p322
F33.812777386757041
sS':/'
p323
F33.812777386757041
sS': '
p324
F33.812777386757041
sS':#'
p325
F7.1106876188193686
sS':?'
p326
F33.812777386757041
sS'::'
p327
F33.812777386757041
sS':4'
p328
F33.812777386757041
sS'j\xb8'
p329
F33.812777386757041
sS':3'
p330
F33.812777386757041
sS':l'
p331
F10.884114985997998
sS':m'
p332
F11.402417910527065
sS':n'
p333
F9.997910493214297
sS':o'
p334
F33.812777386757041
sS':h'
p335
F12.385206219582356
sS':i'
p336
F15.25715098198545
sS':j'
p337
F12.18954021567934
sS':k'
p338
F10.451231254067684
sS':d'
p339
F9.1558874993781352
sS':e'
p340
F21.811017358429826
sS':f'
p341
F13.083115986997178
sS':g'
p342
F18.930468687089171
sS':a'
p343
F22.261549783158756
sS':b'
p344
F11.553233805094909
sS':c'
p345
F17.217621909411765
sS':~'
p346
F33.812777386757041
sS'mf'
p347
F18.073497799750022
sS':y'
p348
F33.812777386757041
sS':z'
p349
F10.845127364434125
sS':t'
p350
F11.077402958902899
sS':u'
p351
F20.180122916647566
sS':v'
p352
F12.094444778123881
sS':p'
p353
F22.081034096049201
sS':s'
p354
F13.784405886514721
sS':@'
p355
F33.812777386757041
sS'#\xb8'
p356
F33.812777386757041
sS':\xaf'
p357
F33.812777386757041
sS':\xab'
p358
F33.812777386757041
sS'mi'
p359
F7.613131904222894
sS':\xbe'
p360
F33.812777386757041
sS':\xb8'
p361
F33.812777386757041
sS'mk'
p362
F13.215997076861372
sS'\xab3'
p363
F33.812777386757041
sS':\x83'
p364
F33.812777386757041
sS':\x9f'
p365
F33.812777386757041
sS':\x92'
p366
F33.812777386757041
sS'j\x9f'
p367
F33.812777386757041
sS':\xc9'
p368
F8.5987170807878801
sS':\xca'
p369
F13.352936569986685
sS'\xab?'
p370
F33.812777386757041
sS':\xc3'
p371
F33.812777386757041
sS's\x9f'
p372
F33.812777386757041
sS's\x92'
p373
F33.812777386757041
sS's\x83'
p374
F33.812777386757041
sS's\xb8'
p375
F33.812777386757041
sS's\xbe'
p376
F33.812777386757041
sS's\xab'
p377
F33.812777386757041
sS's\xaf'
p378
F33.812777386757041
sS'?\xca'
p379
F33.812777386757041
sS'?\xc9'
p380
F33.812777386757041
sS'#\x9f'
p381
F33.812777386757041
sS'?\xc3'
p382
F33.812777386757041
sS'?\xbe'
p383
F33.812777386757041
sS'?\xb8'
p384
F33.812777386757041
sS'?\xaf'
p385
F33.812777386757041
sS's\xca'
p386
F24.844110593561837
sS's\xc9'
p387
F8.3784231167103851
sS'?\xab'
p388
F33.812777386757041
sS'\xc9 '
p389
F33.812777386757041
sS's\xc3'
p390
F11.30463806646666
sS'?\x9f'
p391
F33.812777386757041
sS'?\x92'
p392
F33.812777386757041
sS'f#'
p393
F10.180658016050279
sS'?\x83'
p394
F33.812777386757041
sS'4m'
p395
F33.812777386757041
sS'?~'
p396
F33.812777386757041
sS'?z'
p397
F33.812777386757041
sS'?y'
p398
F33.812777386757041
sS'?v'
p399
F33.812777386757041
sS'?u'
p400
F33.812777386757041
sS'?t'
p401
F33.812777386757041
sS'?s'
p402
F33.812777386757041
sS'?p'
p403
F33.812777386757041
sS'?o'
p404
F33.812777386757041
sS'?n'
p405
F33.812777386757041
sS'?m'
p406
F33.812777386757041
sS'?l'
p407
F33.812777386757041
sS'?k'
p408
F33.812777386757041
sS'?j'
p409
F33.812777386757041
sS'?i'
p410
F33.812777386757041
sS'?h'
p411
F33.812777386757041
sS'?g'
p412
F33.812777386757041
sS'?f'
p413
F33.812777386757041
sS'?e'
p414
F33.812777386757041
sS'?d'
p415
F33.812777386757041
sS'?c'
p416
F33.812777386757041
sS'?b'
p417
F33.812777386757041
sS'?a'
p418
F33.812777386757041
sS's:'
p419
F33.812777386757041
sS's?'
p420
F33.812777386757041
sS's3'
p421
F33.812777386757041
sS'\xb8m'
p422
F14.752912776544331
sS's4'
p423
F33.812777386757041
sS's/'
p424
F33.812777386757041
sS's-'
p425
F33.812777386757041
sS's#'
p426
F9.3342772645581444
sS's '
p427
F23.997394090943505
sS'?@'
p428
F33.812777386757041
sS'??'
p429
F33.812777386757041
sS'?:'
p430
F33.812777386757041
sS'?4'
p431
F33.812777386757041
sS'?3'
p432
F33.812777386757041
sS'?/'
p433
F33.812777386757041
sS'?-'
p434
F33.812777386757041
sS's@'
p435
F33.812777386757041
sS'?#'
p436
F33.812777386757041
sS'? '
p437
F24.167118954348336
sS'sz'
p438
F33.812777386757041
sS'sy'
p439
F11.412573110825663
sS's~'
p440
F33.812777386757041
sS'ss'
p441
F14.147418913757571
sS'sp'
p442
F13.144819550766259
sS'sv'
p443
F17.206010735855347
sS'su'
p444
F10.097961615268655
sS'st'
p445
F10.163154012402268
sS'sk'
p446
F11.120945069873855
sS'sj'
p447
F13.264567879352734
sS'si'
p448
F9.2296748155989956
sS'sh'
p449
F19.232224373669588
sS'so'
p450
F8.6145009338663385
sS'sn'
p451
F16.275612080994264
sS'sm'
p452
F13.899793056432667
sS'sl'
p453
F21.468204064160844
sS'sc'
p454
F23.582756951051408
sS'sb'
p455
F17.705376389081909
sS'sa'
p456
F7.5531909752812139
sS'sg'
p457
F19.645280835716687
sS'sf'
p458
F17.530467181536512
sS'se'
p459
F7.7102962886579807
sS'sd'
p460
F17.768020419215368
sS'e\xc9'
p461
F6.1088427660350479
sS'e\xca'
p462
F9.5670633035011079
sS'e\xc3'
p463
F23.261069125136355
sS'e\xaf'
p464
F33.812777386757041
sS'e\xab'
p465
F33.812777386757041
sS'e\xbe'
p466
F33.812777386757041
sS'e\xb8'
p467
F33.812777386757041
sS'e\x83'
p468
F33.812777386757041
sS'e\x9f'
p469
F33.812777386757041
sS'e\x92'
p470
F33.812777386757041
sS'em'
p471
F8.2227345024444762
sS'el'
p472
F14.298747230939989
sS'eo'
p473
F15.353133650931692
sS'en'
p474
F6.0433923150580755
sS'ei'
p475
F14.075171883894413
sS'eh'
p476
F11.995282704813624
sS'ek'
p477
F7.0777350531892989
sS'ej'
p478
F7.1189051730968922
sS'ee'
p479
F15.026172729842807
sS'ed'
p480
F7.8252561508812217
sS'eg'
p481
F16.556043487108681
sS'ef'
p482
F10.412195362537815
sS'ea'
p483
F18.15208505830898
sS'ec'
p484
F16.053220743245017
sS'eb'
p485
F12.046133232665282
sS'e~'
p486
F33.812777386757041
sS'ey'
p487
F33.812777386757041
sS'ez'
p488
F10.433933663542861
sS'eu'
p489
F25.16531896030212
sS'et'
p490
F7.0174970321057364
sS'ev'
p491
F7.8467707580445376
sS'ep'
p492
F11.04054397283633
sS'es'
p493
F9.4359256759342749
sS'e@'
p494
F33.812777386757041
sS'\xc9l'
p495
F33.812777386757041
sS'e-'
p496
F33.812777386757041
sS'e/'
p497
F33.812777386757041
sS'\xc9o'
p498
F33.812777386757041
sS'e '
p499
F18.869667379479438
sS'e#'
p500
F5.7189871928283873
sS'e?'
p501
F33.812777386757041
sS'e:'
p502
F11.77408976995617
sS'e4'
p503
F33.812777386757041
sS'e3'
p504
F33.812777386757041
sS'j\xc3'
p505
F14.799321124525113
sS'\xb8\xaf'
p506
F33.812777386757041
sS'#-'
p507
F33.812777386757041
sS'j4'
p508
F33.812777386757041
sS'# '
p509
F33.812777386757041
sS'\xab#'
p510
F6.986682035049542
sS'j-'
p511
F33.812777386757041
sS'j#'
p512
F7.8651381972710626
sS'\x9fu'
p513
F19.261970490332736
sS'#\xab'
p514
F33.812777386757041
sS'j\xbe'
p515
F33.812777386757041
sS'#\xaf'
p516
F33.812777386757041
sS'j\xaf'
p517
F33.812777386757041
sS'#\xbe'
p518
F33.812777386757041
sS'j\xab'
p519
F33.812777386757041
sS'\xc9:'
p520
F33.812777386757041
sS'\xc9?'
p521
F33.812777386757041
sS'#\x83'
p522
F33.812777386757041
sS'\xc93'
p523
F33.812777386757041
sS'\xc94'
p524
F33.812777386757041
sS'j\x92'
p525
F33.812777386757041
sS'\xc9-'
p526
F33.812777386757041
sS'\xc9/'
p527
F33.812777386757041
sS'#\x92'
p528
F33.812777386757041
sS'\xc9#'
p529
F33.812777386757041
sS'j\x83'
p530
F33.812777386757041
sS'\xc9@'
p531
F33.812777386757041
sS'\xc9y'
p532
F33.812777386757041
sS'#\xca'
p533
F33.812777386757041
sS'#\xc9'
p534
F33.812777386757041
sS'\xc9z'
p535
F33.812777386757041
sS'\xc9~'
p536
F33.812777386757041
sS'#\xc3'
p537
F33.812777386757041
sS'\xc9p'
p538
F33.812777386757041
sS'\xc9s'
p539
F33.812777386757041
sS'\xc9u'
p540
F33.812777386757041
sS'\xc9t'
p541
F33.812777386757041
sS'\xc9v'
p542
F33.812777386757041
sS'\xc9i'
p543
F33.812777386757041
sS'\xc9h'
p544
F33.812777386757041
sS'\xc9k'
p545
F33.812777386757041
sS'\xc9j'
p546
F33.812777386757041
sS'\xc9m'
p547
F33.812777386757041
sS'j\xc9'
p548
F7.3876879521590908
sS'j\xca'
p549
F22.310442806559045
sS'\xc9n'
p550
F33.812777386757041
sS'\xc9a'
p551
F33.812777386757041
sS'\xc9c'
p552
F33.812777386757041
sS'\xc9b'
p553
F33.812777386757041
sS'\xc9e'
p554
F33.812777386757041
sS'\xc9d'
p555
F33.812777386757041
sS'\xc9g'
p556
F33.812777386757041
sS'\xc9f'
p557
F33.812777386757041
sS'j?'
p558
F33.812777386757041
sS'#/'
p559
F33.812777386757041
sS'\xc9\x9f'
p560
F15.752118392520362
sS'##'
p561
F33.812777386757041
sS'\xc9\x92'
p562
F33.812777386757041
sS'#i'
p563
F33.812777386757041
sS'j3'
p564
F33.812777386757041
sS'#:'
p565
F33.812777386757041
sS'j/'
p566
F33.812777386757041
sS'#?'
p567
F33.812777386757041
sS'#3'
p568
F33.812777386757041
sS'\xc9\x83'
p569
F33.812777386757041
sS'j '
p570
F33.812777386757041
sS'#4'
p571
F33.812777386757041
sS'\xc9\xb8'
p572
F33.812777386757041
sS'#m'
p573
F33.812777386757041
sS'\xc9\xbe'
p574
F4.5029557991998788
sS'#c'
p575
F33.812777386757041
sS'\xc9\xab'
p576
F4.9408432372134232
sS'\xc9\xaf'
p577
F5.7433497818129062
sS'ju'
p578
F11.241119859800724
sS'jv'
p579
F14.001658306035694
sS'#k'
p580
F33.812777386757041
sS'#j'
p581
F33.812777386757041
sS'j~'
p582
F33.812777386757041
sS'#h'
p583
F33.812777386757041
sS'#o'
p584
F33.812777386757041
sS'jy'
p585
F9.3645884077662966
sS'jz'
p586
F15.896868838819135
sS'#l'
p587
F33.812777386757041
sS'jt'
p588
F14.356140220220484
sS'#b'
p589
F33.812777386757041
sS'#a'
p590
F33.812777386757041
sS'jp'
p591
F18.539528145669745
sS'#f'
p592
F33.812777386757041
sS'#e'
p593
F33.812777386757041
sS'#d'
p594
F33.812777386757041
sS'\xc9\xc9'
p595
F33.812777386757041
sS'jm'
p596
F12.71301544764378
sS'#y'
p597
F33.812777386757041
sS'\xc9\xca'
p598
F33.812777386757041
sS'jh'
p599
F18.10819824878666
sS'#~'
p600
F33.812777386757041
sS'jj'
p601
F17.326555138021853
sS'jk'
p602
F14.051276472399898
sS'jd'
p603
F9.2483182249235263
sS'je'
p604
F8.3061294608640956
sS'jf'
p605
F16.216172670828115
sS'jg'
p606
F12.34262049557031
sS'#v'
p607
F33.812777386757041
sS'jb'
p608
F15.791162980342925
sS'jc'
p609
F33.812777386757041
sS'jl'
p610
F20.468342764833054
sS'#z'
p611
F33.812777386757041
sS'#@'
p612
F33.812777386757041
sS'jn'
p613
F10.923516860348284
sS'jo'
p614
F8.610571452745182
sS'j@'
p615
F33.812777386757041
sS'ji'
p616
F7.6152806358044645
sS'#s'
p617
F33.812777386757041
sS'\xc9\xc3'
p618
F33.812777386757041
sS'#p'
p619
F33.812777386757041
sS'ja'
p620
F7.5101134863482049
sS'#u'
p621
F33.812777386757041
sS'#t'
p622
F33.812777386757041
sS'\xb8\xca'
p623
F17.257514227959728
sS'ya'
p624
F22.644732118532954
sS'o\x83'
p625
F33.812777386757041
sS'o\x9f'
p626
F33.812777386757041
sS'yp'
p627
F13.28933699016773
sS'o\x92'
p628
F33.812777386757041
sS'j:'
p629
F33.812777386757041
sS'cn'
p630
F33.812777386757041
sS'o\xaf'
p631
F33.812777386757041
sS'o\xab'
p632
F33.812777386757041
sS'cm'
p633
F33.812777386757041
sS'o\xbe'
p634
F33.812777386757041
sS'o\xb8'
p635
F33.812777386757041
sS'o\xca'
p636
F11.258653006906911
sS'o\xc9'
p637
F6.986757217794354
sS'/\xc3'
p638
F33.812777386757041
sS'o\xc3'
p639
F33.812777386757041
sS'o/'
p640
F33.812777386757041
sS'o-'
p641
F33.812777386757041
sS'o#'
p642
F7.9626937528275397
sS'o '
p643
F33.812777386757041
sS'o?'
p644
F33.812777386757041
sS'o:'
p645
F10.452423093614925
sS'o4'
p646
F33.812777386757041
sS'o3'
p647
F33.812777386757041
sS'o@'
p648
F33.812777386757041
sS'oo'
p649
F19.90204097783273
sS'on'
p650
F8.1673123092991204
sS'om'
p651
F11.497683948634165
sS'ol'
p652
F13.63352308956526
sS'ok'
p653
F7.2927055277965911
sS'oj'
p654
F11.31298185251184
sS'oi'
p655
F16.916243939211348
sS'oh'
p656
F15.715130998197504
sS'og'
p657
F14.133776730375677
sS'of'
p658
F14.468479311332276
sS'oe'
p659
F14.101149059247749
sS'od'
p660
F10.848843269302352
sS'oc'
p661
F20.598913734007699
sS'ob'
p662
F14.193787948339487
sS'oa'
p663
F13.786971396116972
sS'o~'
p664
F33.812777386757041
sS'oz'
p665
F13.21818214979773
sS'oy'
p666
F33.812777386757041
sS'ov'
p667
F14.032248832714824
sS'ou'
p668
F12.088311413100536
sS'ot'
p669
F11.768341575237178
sS'os'
p670
F12.147767266912663
sS'op'
p671
F12.448248875825366
sS'a\xc3'
p672
F25.16531896030212
sS'a\xc9'
p673
F5.8908920767134063
sS'a\xca'
p674
F8.8450747325170074
sS'a\xab'
p675
F33.812777386757041
sS'a\xaf'
p676
F33.812777386757041
sS'a\xb8'
p677
F33.812777386757041
sS'a\xbe'
p678
F33.812777386757041
sS'a\x83'
p679
F33.812777386757041
sS'a\x92'
p680
F33.812777386757041
sS'a\x9f'
p681
F33.812777386757041
sS'aa'
p682
F11.433761598474145
sS'ac'
p683
F16.280931450777508
sS'ab'
p684
F8.4830362978515605
sS'ae'
p685
F18.969199781720587
sS'ad'
p686
F7.8357876681234604
sS'ag'
p687
F16.117025745544002
sS'af'
p688
F10.665576654921729
sS'ai'
p689
F11.896436840546471
sS'ah'
p690
F7.9905942983975429
sS'ak'
p691
F7.1106453336391739
sS'aj'
p692
F6.9947171862842508
sS'am'
p693
F6.4225922155802868
sS'al'
p694
F10.728976552049817
sS'ao'
p695
F16.743694801393517
sS'an'
p696
F6.966287957354556
sS'ap'
p697
F9.339650551572209
sS'as'
p698
F8.4111860975970014
sS'au'
p699
F16.229334636988561
sS'at'
p700
F7.9689924728026513
sS'av'
p701
F10.082359803731253
sS'ay'
p702
F33.812777386757041
sS'az'
p703
F8.4605680671134085
sS'a~'
p704
F33.812777386757041
sS'a@'
p705
F33.812777386757041
sS'a '
p706
F33.812777386757041
sS'a#'
p707
F5.9212978475473674
sS'c '
p708
F33.812777386757041
sS'a-'
p709
F33.812777386757041
sS'a/'
p710
F33.812777386757041
sS'a3'
p711
F33.812777386757041
sS'a4'
p712
F33.812777386757041
sS'a:'
p713
F6.6776483929415935
sS'a?'
p714
F33.812777386757041
sS'\x83a'
p715
F8.983145564186648
sS'@\xc3'
p716
F33.812777386757041
sS'-@'
p717
F33.812777386757041
sS'gv'
p718
F33.812777386757041
sS'@\xca'
p719
F33.812777386757041
sS'@\xc9'
p720
F33.812777386757041
sS'c3'
p721
F33.812777386757041
sS' a'
p722
F19.837914713262823
sS' f'
p723
F23.997394090943505
sS't@'
p724
F26.161725695578113
sS'-e'
p725
F33.812777386757041
sS'-d'
p726
F33.812777386757041
sS'-g'
p727
F33.812777386757041
sS'-f'
p728
F33.812777386757041
sS'-a'
p729
F33.812777386757041
sS'\x9f:'
p730
F33.812777386757041
sS'-c'
p731
F33.812777386757041
sS'-b'
p732
F33.812777386757041
sS'-m'
p733
F33.812777386757041
sS'-l'
p734
F33.812777386757041
sS'-o'
p735
F33.812777386757041
sS'\x9f4'
p736
F33.812777386757041
sS'\x9f3'
p737
F33.812777386757041
sS'-h'
p738
F33.812777386757041
sS'-k'
p739
F33.812777386757041
sS'-j'
p740
F33.812777386757041
sS'\x9f/'
p741
F33.812777386757041
sS'to'
p742
F10.949412126615124
sS'\x9f-'
p743
F33.812777386757041
sS'tm'
p744
F10.231995644726492
sS'tj'
p745
F17.791688972094615
sS'-p'
p746
F33.812777386757041
sS'-s'
p747
F33.812777386757041
sS'ti'
p748
F9.9826714209056426
sS'tf'
p749
F10.169890018429447
sS'tg'
p750
F17.051265110097745
sS'td'
p751
F33.812777386757041
sS'-~'
p752
F33.812777386757041
sS'-y'
p753
F33.812777386757041
sS'tc'
p754
F21.645045645653799
sS'-z'
p755
F33.812777386757041
sS'@\x83'
p756
F33.812777386757041
sS'gz'
p757
F22.644732118532954
sS'@\x92'
p758
F33.812777386757041
sS'gy'
p759
F8.7856471838238672
sS'@\x9f'
p760
F33.812777386757041
sS'\x9f@'
p761
F33.812777386757041
sS't?'
p762
F33.812777386757041
sS'y\x92'
p763
F33.812777386757041
sS't:'
p764
F33.812777386757041
sS'\x9fz'
p765
F33.812777386757041
sS'-#'
p766
F33.812777386757041
sS'gf'
p767
F33.812777386757041
sS'--'
p768
F33.812777386757041
sS'@\xab'
p769
F33.812777386757041
sS'-/'
p770
F33.812777386757041
sS'\x9ft'
p771
F33.812777386757041
sS'\x9fs'
p772
F19.461493038081926
sS'@\xaf'
p773
F33.812777386757041
sS'\x9fp'
p774
F33.812777386757041
sS'\x9fo'
p775
F33.812777386757041
sS'-4'
p776
F33.812777386757041
sS'\x9fm'
p777
F33.812777386757041
sS't-'
p778
F33.812777386757041
sS'\x9fk'
p779
F33.812777386757041
sS'\x9fj'
p780
F33.812777386757041
sS'-3'
p781
F33.812777386757041
sS'\x9fh'
p782
F33.812777386757041
sS'\x9fg'
p783
F33.812777386757041
sS'\x9ff'
p784
F33.812777386757041
sS'-?'
p785
F33.812777386757041
sS'\x9fd'
p786
F33.812777386757041
sS'@\xbe'
p787
F33.812777386757041
sS'\x9fb'
p788
F33.812777386757041
sS't '
p789
F33.812777386757041
sS'-:'
p790
F33.812777386757041
sS'\x9f\x9f'
p791
F33.812777386757041
sS'@@'
p792
F33.812777386757041
sS'ga'
p793
F10.707521528589162
sS'-\xc3'
p794
F33.812777386757041
sS'-\xc9'
p795
F33.812777386757041
sS'\x9f\x92'
p796
F33.812777386757041
sS'-\xca'
p797
F33.812777386757041
sS'go'
p798
F13.64156515365633
sS't\xca'
p799
F5.9818814980093151
sS't\xc9'
p800
F8.8107850971321362
sS'\x9f\x83'
p801
F33.812777386757041
sS't\xc3'
p802
F15.250799618061201
sS'@b'
p803
F33.812777386757041
sS'@c'
p804
F33.812777386757041
sS'@a'
p805
F33.812777386757041
sS'@f'
p806
F33.812777386757041
sS'@g'
p807
F33.812777386757041
sS'@d'
p808
F33.812777386757041
sS'@e'
p809
F33.812777386757041
sS'@j'
p810
F33.812777386757041
sS'@k'
p811
F33.812777386757041
sS'@h'
p812
F33.812777386757041
sS'@i'
p813
F33.812777386757041
sS'@n'
p814
F33.812777386757041
sS'@o'
p815
F33.812777386757041
sS'@l'
p816
F33.812777386757041
sS'@m'
p817
F33.812777386757041
sS'\x9f\xaf'
p818
F33.812777386757041
sS'@s'
p819
F33.812777386757041
sS'@p'
p820
F33.812777386757041
sS'\x9f\xab'
p821
F33.812777386757041
sS'@t'
p822
F33.812777386757041
sS'@u'
p823
F33.812777386757041
sS'@z'
p824
F33.812777386757041
sS'@y'
p825
F33.812777386757041
sS'@~'
p826
F33.812777386757041
sS't\x9f'
p827
F33.812777386757041
sS'-\x83'
p828
F33.812777386757041
sS't\x92'
p829
F33.812777386757041
sS'\x9f\xca'
p830
F33.812777386757041
sS'\x9f\xc9'
p831
F17.24557885381223
sS'-\x92'
p832
F33.812777386757041
sS'-\x9f'
p833
F33.812777386757041
sS'\x9f\xc3'
p834
F33.812777386757041
sS't\x83'
p835
F33.812777386757041
sS't\xbe'
p836
F33.812777386757041
sS'@#'
p837
F26.161725695578113
sS'@ '
p838
F33.812777386757041
sS't\xb8'
p839
F33.812777386757041
sS'-\xaf'
p840
F33.812777386757041
sS'@/'
p841
F33.812777386757041
sS'-\xab'
p842
F33.812777386757041
sS'@-'
p843
F33.812777386757041
sS't\xaf'
p844
F33.812777386757041
sS't\xab'
p845
F33.812777386757041
sS'@4'
p846
F33.812777386757041
sS'@:'
p847
F33.812777386757041
sS'-\xbe'
p848
F33.812777386757041
sS'-\xb8'
p849
F33.812777386757041
sS'f\xb8'
p850
F33.812777386757041
sS'f\xbe'
p851
F33.812777386757041
sS'f\xab'
p852
F33.812777386757041
sS'f\xaf'
p853
F33.812777386757041
sS'f\x92'
p854
F33.812777386757041
sS'f\x9f'
p855
F33.812777386757041
sS'f\x83'
p856
F33.812777386757041
sS'vo'
p857
F14.551451435867161
sS'f\xc3'
p858
F16.798222893728028
sS'f\xc9'
p859
F11.10382045490109
sS'f\xca'
p860
F18.554174549891613
sS'f3'
p861
F33.812777386757041
sS'f4'
p862
F33.812777386757041
sS'f:'
p863
F33.812777386757041
sS'f?'
p864
F33.812777386757041
sS'f '
p865
F33.812777386757041
sS'g4'
p866
F33.812777386757041
sS'g3'
p867
F33.812777386757041
sS'f-'
p868
F33.812777386757041
sS'f/'
p869
F33.812777386757041
sS'fp'
p870
F33.812777386757041
sS'/o'
p871
F33.812777386757041
sS'fs'
p872
F16.600955617678256
sS'ft'
p873
F11.643522432423701
sS'fu'
p874
F14.583252080261357
sS'fv'
p875
F33.812777386757041
sS'c\xca'
p876
F33.812777386757041
sS'fy'
p877
F15.656175796832578
sS'fz'
p878
F33.812777386757041
sS'/m'
p879
F33.812777386757041
sS'f~'
p880
F33.812777386757041
sS'g:'
p881
F33.812777386757041
sS'fa'
p882
F9.293225772479925
sS'fb'
p883
F33.812777386757041
sS'fc'
p884
F26.161725695578113
sS'fd'
p885
F27.154565904005249
sS'fe'
p886
F9.4885478680376671
sS'ff'
p887
F16.896279749199081
sS'fg'
p888
F19.614255608247625
sS'fh'
p889
F21.387299199111716
sS'fi'
p890
F11.20180731527917
sS'fj'
p891
F18.380985997800817
sS'fk'
p892
F16.146546447936686
sS'fl'
p893
F19.044748176580129
sS'fm'
p894
F20.998795835142367
sS'fn'
p895
F20.93991015997047
sS'fo'
p896
F12.547670016192166
sS'f@'
p897
F33.812777386757041
sS'c\xc3'
p898
F33.812777386757041
sS'g#'
p899
F16.200247204728022
sS'\x83\xca'
p900
F23.360536146326226
sS'\x83\xc9'
p901
F9.2074262268900515
sS'y-'
p902
F33.812777386757041
sS'y/'
p903
F33.812777386757041
sS'\x83\xc3'
p904
F12.52022601439845
sS'y '
p905
F33.812777386757041
sS'y#'
p906
F10.126994623181309
sS' :'
p907
F33.812777386757041
sS'y:'
p908
F14.479576166602937
sS'y?'
p909
F33.812777386757041
sS'y3'
p910
F33.812777386757041
sS'y4'
p911
F33.812777386757041
sS'yi'
p912
F33.812777386757041
sS'yh'
p913
F16.221276954263967
sS'yk'
p914
F9.2947922720878342
sS'yj'
p915
F10.484555952925597
sS'ym'
p916
F10.248347241115571
sS'yl'
p917
F16.074836911622668
sS'yo'
p918
F22.467926702814051
sS'yn'
p919
F8.6564314424311632
sS'\x83\x83'
p920
F33.812777386757041
sS'yc'
p921
F16.955804823263211
sS'yb'
p922
F14.941603088331181
sS'ye'
p923
F17.412348195999254
sS'yd'
p924
F12.090102830152901
sS'yg'
p925
F24.35950675274642
sS'yf'
p926
F14.130000493462136
sS'yy'
p927
F15.120771536166918
sS'yz'
p928
F8.8576251695856403
sS'\x83\x9f'
p929
F33.812777386757041
sS'y~'
p930
F33.812777386757041
sS'\x83\x92'
p931
F33.812777386757041
sS'ys'
p932
F11.363580116628432
sS'yu'
p933
F33.812777386757041
sS'yt'
p934
F8.7492366104095574
sS'yv'
p935
F13.678695807469039
sS'\x83\xab'
p936
F33.812777386757041
sS'\x83\xaf'
p937
F33.812777386757041
sS'y@'
p938
F33.812777386757041
sS'\x83\xb8'
p939
F33.812777386757041
sS'\x83\xbe'
p940
F33.812777386757041
sS'c\xab'
p941
F33.812777386757041
sS'y\xab'
p942
F33.812777386757041
sS'y\xaf'
p943
F33.812777386757041
sS'\x83@'
p944
F33.812777386757041
sS'y\xb8'
p945
F33.812777386757041
sS'y\xbe'
p946
F33.812777386757041
sS'\x83k'
p947
F9.8890566541723341
sS'\x83j'
p948
F17.147927372725864
sS'\x83i'
p949
F7.3295559040765594
sS'\x83h'
p950
F15.132400692329355
sS'\x83o'
p951
F7.9285234506489166
sS'\x83n'
p952
F17.570850081520934
sS'\x83m'
p953
F10.614751923372275
sS'\x83l'
p954
F33.812777386757041
sS'\x83c'
p955
F33.812777386757041
sS'\x83b'
p956
F10.871216590093249
sS'y\x83'
p957
F33.812777386757041
sS'\x83g'
p958
F14.581844575081378
sS'\x83f'
p959
F18.377725742315384
sS'\x83e'
p960
F7.7775517053772596
sS'\x83d'
p961
F27.154565904005249
sS'\x83z'
p962
F33.812777386757041
sS'\x83y'
p963
F10.511602607821409
sS'\x83~'
p964
F33.812777386757041
sS'y\x9f'
p965
F33.812777386757041
sS'\x83s'
p966
F16.059736962654771
sS'\x83p'
p967
F20.883334029072849
sS'\x83v'
p968
F14.786024326922444
sS'\x83u'
p969
F9.7782903022735042
sS'\x83t'
p970
F11.203226858142996
sS'y\xc9'
p971
F9.1913449355532197
sS'y\xca'
p972
F11.274126875764948
sS'\x83/'
p973
F33.812777386757041
sS'\x83-'
p974
F33.812777386757041
sS'\x83#'
p975
F7.3536410925561588
sS'y\xc3'
p976
F33.812777386757041
sS'\x83 '
p977
F15.338402028739527
sS'\x83:'
p978
F33.812777386757041
sS'c\xb8'
p979
F33.812777386757041
sS'\x83?'
p980
F33.812777386757041
sS'\x833'
p981
F33.812777386757041
sS'\x834'
p982
F33.812777386757041
sS'k\x83'
p983
F33.812777386757041
sS'k\x92'
p984
F33.812777386757041
sS'k\x9f'
p985
F33.812777386757041
sS'k\xab'
p986
F33.812777386757041
sS'k\xaf'
p987
F33.812777386757041
sS'~\xc9'
p988
F33.812777386757041
sS'~\xca'
p989
F33.812777386757041
sS'k\xb8'
p990
F33.812777386757041
sS'k\xbe'
p991
F33.812777386757041
sS'k\xc3'
p992
F10.679182816051464
sS'~\xbe'
p993
F33.812777386757041
sS'k\xca'
p994
F12.623413079739695
sS'k\xc9'
p995
F8.3915309886607616
sS'~\xab'
p996
F33.812777386757041
sS'~\xaf'
p997
F33.812777386757041
sS'~\xc3'
p998
F33.812777386757041
sS'~\x9f'
p999
F33.812777386757041
sS'~\x92'
p1000
F33.812777386757041
sS'~\x83'
p1001
F33.812777386757041
sS'~\xb8'
p1002
F33.812777386757041
sS'~z'
p1003
F33.812777386757041
sS'~~'
p1004
F33.812777386757041
sS'~p'
p1005
F33.812777386757041
sS'~s'
p1006
F33.812777386757041
sS'~t'
p1007
F33.812777386757041
sS'~u'
p1008
F33.812777386757041
sS'~v'
p1009
F33.812777386757041
sS'~h'
p1010
F33.812777386757041
sS'~i'
p1011
F33.812777386757041
sS'~j'
p1012
F33.812777386757041
sS'~k'
p1013
F33.812777386757041
sS'~l'
p1014
F33.812777386757041
sS'~m'
p1015
F33.812777386757041
sS'~n'
p1016
F33.812777386757041
sS'~o'
p1017
F33.812777386757041
sS'~a'
p1018
F33.812777386757041
sS'~b'
p1019
F33.812777386757041
sS'~c'
p1020
F33.812777386757041
sS'~d'
p1021
F33.812777386757041
sS'~e'
p1022
F33.812777386757041
sS'~f'
p1023
F33.812777386757041
sS'~g'
p1024
F33.812777386757041
sS'k#'
p1025
F5.6182241882544508
sS'k '
p1026
F22.846271934851302
sS'k/'
p1027
F33.812777386757041
sS'k-'
p1028
F33.812777386757041
sS'k3'
p1029
F33.812777386757041
sS'k4'
p1030
F33.812777386757041
sS'~@'
p1031
F33.812777386757041
sS'k:'
p1032
F33.812777386757041
sS'k?'
p1033
F33.812777386757041
sS'~:'
p1034
F33.812777386757041
sS'k@'
p1035
F33.812777386757041
sS'3z'
p1036
F33.812777386757041
sS'~3'
p1037
F33.812777386757041
sS'~4'
p1038
F33.812777386757041
sS'~-'
p1039
F33.812777386757041
sS'~/'
p1040
F33.812777386757041
sS'~ '
p1041
F14.983113485300578
sS'~#'
p1042
F33.812777386757041
sS'kc'
p1043
F33.812777386757041
sS'kb'
p1044
F17.011561628618388
sS'ka'
p1045
F6.7461860224939656
sS'kg'
p1046
F24.581556206045857
sS'kf'
p1047
F33.812777386757041
sS'ke'
p1048
F8.55625780284754
sS'kd'
p1049
F14.884383351224855
sS'kk'
p1050
F9.7836737811391767
sS'kj'
p1051
F15.835201181224475
sS'ki'
p1052
F7.6317729388494788
sS'kh'
p1053
F19.776517902054437
sS'ko'
p1054
F9.636862033094161
sS'kn'
p1055
F13.63753851797409
sS'km'
p1056
F11.90312267561565
sS'kl'
p1057
F16.017898313798653
sS'ks'
p1058
F10.501740200262338
sS'3s'
p1059
F33.812777386757041
sS'kp'
p1060
F26.161725695578113
sS'kv'
p1061
F16.897446496835187
sS'ku'
p1062
F10.13277968045678
sS'kt'
p1063
F10.606156909968545
sS'kz'
p1064
F20.286155890509189
sS'ky'
p1065
F9.7708454905444864
sS'k~'
p1066
F33.812777386757041
sS'3p'
p1067
F33.812777386757041
sS'4n'
p1068
F33.812777386757041
sS'3o'
p1069
F33.812777386757041
sS'3f'
p1070
F33.812777386757041
sS'g\xc9'
p1071
F11.828966488404866
sS' \xab'
p1072
F33.812777386757041
sS'z#'
p1073
F7.5624924699755791
sS'~y'
p1074
F33.812777386757041
sS'g\xaf'
p1075
F33.812777386757041
sS'p@'
p1076
F33.812777386757041
sS'\xca\xc9'
p1077
F33.812777386757041
sS'\xca\xca'
p1078
F33.812777386757041
sS'3\x83'
p1079
F33.812777386757041
sS'\xca\xc3'
p1080
F33.812777386757041
sS'ps'
p1081
F17.789521167985981
sS'pp'
p1082
F17.332855057600959
sS'pv'
p1083
F33.812777386757041
sS'pt'
p1084
F11.533486191391663
sS'pu'
p1085
F12.800618686074362
sS'pz'
p1086
F22.214259576144421
sS' \xbe'
p1087
F33.812777386757041
sS'py'
p1088
F14.651987613468847
sS'p~'
p1089
F33.812777386757041
sS'pb'
p1090
F22.920234570108491
sS'pc'
p1091
F33.812777386757041
sS'pa'
p1092
F9.6335166343359155
sS'pf'
p1093
F24.844110593561837
sS'pg'
p1094
F33.812777386757041
sS'pd'
p1095
F20.427319385569074
sS'pe'
p1096
F9.185098068387731
sS'pj'
p1097
F15.699783088290307
sS'pk'
p1098
F13.394441936920881
sS'ph'
p1099
F15.103501696245674
sS'pi'
p1100
F11.540646263570347
sS'pn'
p1101
F19.197320166286421
sS'po'
p1102
F11.249033449327642
sS'pl'
p1103
F18.685065121536724
sS'pm'
p1104
F11.128460011976042
sS'\xca\x9f'
p1105
F33.812777386757041
sS'3:'
p1106
F33.812777386757041
sS'\xca\x92'
p1107
F6.8952382558151335
sS'\xca\x83'
p1108
F5.0849196358350044
sS'p3'
p1109
F33.812777386757041
sS'\xca\xbe'
p1110
F33.812777386757041
sS'\xca\xb8'
p1111
F33.812777386757041
sS'p4'
p1112
F33.812777386757041
sS'p:'
p1113
F33.812777386757041
sS'p?'
p1114
F33.812777386757041
sS'p#'
p1115
F9.2551259594226369
sS'p '
p1116
F33.812777386757041
sS'\xca\xaf'
p1117
F33.812777386757041
sS'\xca\xab'
p1118
F33.812777386757041
sS'p/'
p1119
F33.812777386757041
sS'p-'
p1120
F33.812777386757041
sS'p\xc3'
p1121
F22.775916940083999
sS'p\xca'
p1122
F17.328127540702699
sS'p\xc9'
p1123
F11.331514760123568
sS'\xca@'
p1124
F33.812777386757041
sS'\xca~'
p1125
F33.812777386757041
sS'\xcay'
p1126
F33.812777386757041
sS'\xcaz'
p1127
F33.812777386757041
sS'\xcat'
p1128
F33.812777386757041
sS'\xcau'
p1129
F33.812777386757041
sS'\xcav'
p1130
F33.812777386757041
sS'\xcap'
p1131
F33.812777386757041
sS'\xcas'
p1132
F33.812777386757041
sS'\xcal'
p1133
F33.812777386757041
sS'\xcam'
p1134
F33.812777386757041
sS'\xcan'
p1135
F33.812777386757041
sS'\xcao'
p1136
F33.812777386757041
sS'\xcah'
p1137
F33.812777386757041
sS'\xcai'
p1138
F33.812777386757041
sS'\xcaj'
p1139
F33.812777386757041
sS'\xcak'
p1140
F33.812777386757041
sS'\xcad'
p1141
F33.812777386757041
sS'\xcae'
p1142
F33.812777386757041
sS'\xcaf'
p1143
F33.812777386757041
sS'\xcag'
p1144
F33.812777386757041
sS'\xcaa'
p1145
F33.812777386757041
sS'\xcab'
p1146
F33.812777386757041
sS'\xcac'
p1147
F33.812777386757041
sS'p\x92'
p1148
F33.812777386757041
sS'p\x9f'
p1149
F33.812777386757041
sS'p\x83'
p1150
F33.812777386757041
sS'\xca?'
p1151
F33.812777386757041
sS'\xca:'
p1152
F33.812777386757041
sS'\xca4'
p1153
F33.812777386757041
sS'p\xb8'
p1154
F33.812777386757041
sS'p\xbe'
p1155
F33.812777386757041
sS'\xca3'
p1156
F33.812777386757041
sS'\xca-'
p1157
F33.812777386757041
sS'\xca/'
p1158
F33.812777386757041
sS'p\xab'
p1159
F33.812777386757041
sS'\xca '
p1160
F33.812777386757041
sS'p\xaf'
p1161
F33.812777386757041
sS'\xca#'
p1162
F33.812777386757041
sS'b\xaf'
p1163
F33.812777386757041
sS'b\xab'
p1164
F33.812777386757041
sS'b\xbe'
p1165
F33.812777386757041
sS'b\xb8'
p1166
F33.812777386757041
sS'b\x83'
p1167
F33.812777386757041
sS'b\x92'
p1168
F33.812777386757041
sS'b\x9f'
p1169
F33.812777386757041
sS'b\xc3'
p1170
F10.021785748734581
sS'b\xc9'
p1171
F12.335783537470093
sS'b\xca'
p1172
F20.070783811657535
sS'#n'
p1173
F33.812777386757041
sS'b '
p1174
F33.812777386757041
sS'b#'
p1175
F18.427420503146891
sS'b-'
p1176
F33.812777386757041
sS'b/'
p1177
F33.812777386757041
sS'b4'
p1178
F33.812777386757041
sS'b3'
p1179
F33.812777386757041
sS'gp'
p1180
F23.261069125136355
sS'b?'
p1181
F33.812777386757041
sS'b:'
p1182
F33.812777386757041
sS'~?'
p1183
F33.812777386757041
sS'js'
p1184
F16.111599549177765
sS'bd'
p1185
F24.167118954348336
sS'be'
p1186
F6.8526562293620259
sS'bf'
p1187
F33.812777386757041
sS'bg'
p1188
F33.812777386757041
sS'ba'
p1189
F7.4895338633037332
sS'bb'
p1190
F16.528667221345682
sS'bc'
p1191
F33.812777386757041
sS'bl'
p1192
F22.524488044576074
sS'bm'
p1193
F33.812777386757041
sS'bn'
p1194
F16.15908558304999
sS'bo'
p1195
F10.936443868788084
sS'bh'
p1196
F18.653181941339469
sS'bi'
p1197
F6.9585589961886534
sS'bj'
p1198
F19.90204097783273
sS'bk'
p1199
F33.812777386757041
sS'bt'
p1200
F33.812777386757041
sS'bu'
p1201
F6.3902897596738564
sS'bv'
p1202
F33.812777386757041
sS'bp'
p1203
F33.812777386757041
sS'bs'
p1204
F21.811017358429826
sS'b~'
p1205
F33.812777386757041
sS'by'
p1206
F9.6433162015270106
sS'bz'
p1207
F17.293924485245917
sS'b@'
p1208
F33.812777386757041
sS'u?'
p1209
F33.812777386757041
sS'u:'
p1210
F13.765375187390147
sS'u4'
p1211
F33.812777386757041
sS'u3'
p1212
F33.812777386757041
sS'u-'
p1213
F33.812777386757041
sS'u/'
p1214
F33.812777386757041
sS'u '
p1215
F33.812777386757041
sS'u#'
p1216
F6.2313275404332336
sS'#g'
p1217
F33.812777386757041
sS'u@'
p1218
F33.812777386757041
sS'u~'
p1219
F33.812777386757041
sS'uy'
p1220
F23.582756951051408
sS'uz'
p1221
F10.267500256631795
sS'uu'
p1222
F17.723885652624777
sS'ut'
p1223
F10.813036587895125
sS'uv'
p1224
F14.099805456485782
sS'up'
p1225
F13.11609760665972
sS'us'
p1226
F12.389098751913288
sS'um'
p1227
F10.519973708152955
sS'ul'
p1228
F11.944768370399736
sS'uo'
p1229
F22.644732118532954
sS'un'
p1230
F7.6307511954238905
sS'ui'
p1231
F27.154565904005249
sS'uh'
p1232
F12.013430540696779
sS'uk'
p1233
F9.9322528527777294
sS'uj'
p1234
F11.764311466542507
sS'ue'
p1235
F18.310909109624255
sS'ud'
p1236
F12.349490008478654
sS'ug'
p1237
F11.606499580079102
sS'uf'
p1238
F13.51227176807957
sS'ua'
p1239
F13.183078370744143
sS'uc'
p1240
F33.812777386757041
sS'ub'
p1241
F15.597163814015333
sS'u\x9f'
p1242
F33.812777386757041
sS'u\x92'
p1243
F33.812777386757041
sS'u\x83'
p1244
F33.812777386757041
sS'u\xbe'
p1245
F33.812777386757041
sS'u\xb8'
p1246
F33.812777386757041
sS'u\xaf'
p1247
F33.812777386757041
sS'u\xab'
p1248
F33.812777386757041
sS' k'
p1249
F33.812777386757041
sS'u\xca'
p1250
F10.84546158014142
sS'u\xc3'
p1251
F33.812777386757041
sS'ge'
p1252
F8.1169502270296192
sS' b'
p1253
F33.812777386757041
sS' c'
p1254
F33.812777386757041
sS'gu'
p1255
F11.694264300040036
sS'gt'
p1256
F25.16531896030212
sS'gs'
p1257
F33.812777386757041
sS' g'
p1258
F33.812777386757041
sS' d'
p1259
F15.339194498453791
sS' e'
p1260
F33.812777386757041
sS' j'
p1261
F33.812777386757041
sS'g~'
p1262
F33.812777386757041
sS' h'
p1263
F33.812777386757041
sS' i'
p1264
F33.812777386757041
sS' n'
p1265
F33.812777386757041
sS' o'
p1266
F33.812777386757041
sS' l'
p1267
F33.812777386757041
sS' m'
p1268
F26.161725695578113
sS'gg'
p1269
F33.812777386757041
sS'3\xca'
p1270
F33.812777386757041
sS'3\xc9'
p1271
F33.812777386757041
sS'gd'
p1272
F33.812777386757041
sS'gc'
p1273
F33.812777386757041
sS'gb'
p1274
F33.812777386757041
sS' t'
p1275
F18.265009232666145
sS' u'
p1276
F18.725936244975173
sS'3\xc3'
p1277
F33.812777386757041
sS'gn'
p1278
F33.812777386757041
sS'gm'
p1279
F20.709325645040956
sS'gl'
p1280
F33.812777386757041
sS' ~'
p1281
F14.983113485300578
sS'gj'
p1282
F33.812777386757041
sS'gi'
p1283
F8.5353440751106167
sS'gh'
p1284
F33.812777386757041
sS' @'
p1285
F33.812777386757041
sS'z\xc9'
p1286
F9.2948943636557644
sS'z\xca'
p1287
F33.812777386757041
sS'z\xc3'
p1288
F21.146331447942213
sS'g@'
p1289
F33.812777386757041
sS' #'
p1290
F33.812777386757041
sS'  '
p1291
F33.812777386757041
sS'z\xaf'
p1292
F33.812777386757041
sS'3\x9f'
p1293
F33.812777386757041
sS'z\xab'
p1294
F33.812777386757041
sS'g?'
p1295
F33.812777386757041
sS'3\x92'
p1296
F33.812777386757041
sS' /'
p1297
F33.812777386757041
sS' -'
p1298
F33.812777386757041
sS' 3'
p1299
F33.812777386757041
sS'z\xbe'
p1300
F33.812777386757041
sS'z\xb8'
p1301
F33.812777386757041
sS' 4'
p1302
F33.812777386757041
sS'g '
p1303
F33.812777386757041
sS'g/'
p1304
F33.812777386757041
sS'g-'
p1305
F33.812777386757041
sS' ?'
p1306
F24.167118954348336
sS'3\xb8'
p1307
F33.812777386757041
sS'3\xbe'
p1308
F33.812777386757041
sS'z\x83'
p1309
F33.812777386757041
sS'3\xab'
p1310
F33.812777386757041
sS'z\x9f'
p1311
F33.812777386757041
sS'3\xaf'
p1312
F33.812777386757041
sS'z\x92'
p1313
F33.812777386757041
sS'zl'
p1314
F21.920614076895077
sS'zm'
p1315
F12.955816217707588
sS'zn'
p1316
F20.709325645040956
sS'zo'
p1317
F12.006804884574358
sS'zh'
p1318
F20.180122916647566
sS'zi'
p1319
F9.9258122188307052
sS'zj'
p1320
F16.545945103869254
sS'zk'
p1321
F19.01912327925081
sS'zd'
p1322
F11.125680046282012
sS'ze'
p1323
F9.1574208736722706
sS'zf'
p1324
F33.812777386757041
sS'zg'
p1325
F12.93935054741711
sS'za'
p1326
F8.8012376633653631
sS'zb'
p1327
F14.166631820270261
sS'zc'
p1328
F33.812777386757041
sS'z~'
p1329
F33.812777386757041
sS'zy'
p1330
F10.936106632962908
sS'zz'
p1331
F15.208191582742279
sS'zt'
p1332
F22.775916940083999
sS'zu'
p1333
F11.295909486743035
sS'zv'
p1334
F21.102616694974131
sS'3@'
p1335
F33.812777386757041
sS'zp'
p1336
F25.16531896030212
sS'zs'
p1337
F20.102724346732632
sS' \xc3'
p1338
F33.812777386757041
sS'3y'
p1339
F33.812777386757041
sS'3~'
p1340
F33.812777386757041
sS' \xca'
p1341
F22.846271934851302
sS' \xc9'
p1342
F33.812777386757041
sS'z@'
p1343
F33.812777386757041
sS'3v'
p1344
F33.812777386757041
sS'3u'
p1345
F33.812777386757041
sS'3t'
p1346
F33.812777386757041
sS'3k'
p1347
F33.812777386757041
sS'3j'
p1348
F33.812777386757041
sS'3i'
p1349
F33.812777386757041
sS'3h'
p1350
F33.812777386757041
sS'g\xc3'
p1351
F10.035056432985854
sS'3n'
p1352
F33.812777386757041
sS'3m'
p1353
F33.812777386757041
sS'3l'
p1354
F33.812777386757041
sS'3c'
p1355
F33.812777386757041
sS'3b'
p1356
F33.812777386757041
sS'3a'
p1357
F33.812777386757041
sS'3g'
p1358
F33.812777386757041
sS'g\xca'
p1359
F33.812777386757041
sS'3e'
p1360
F33.812777386757041
sS'3d'
p1361
F33.812777386757041
sS'z-'
p1362
F33.812777386757041
sS'z/'
p1363
F33.812777386757041
sS' s'
p1364
F24.167118954348336
sS'g\xbe'
p1365
F33.812777386757041
sS'z '
p1366
F33.812777386757041
sS' \xaf'
p1367
F33.812777386757041
sS'g\xb8'
p1368
F33.812777386757041
sS'z?'
p1369
F33.812777386757041
sS'z:'
p1370
F33.812777386757041
sS'z4'
p1371
F33.812777386757041
sS' \xb8'
p1372
F33.812777386757041
sS'g\xab'
p1373
F33.812777386757041
sS'z3'
p1374
F33.812777386757041
sS' \x83'
p1375
F33.812777386757041
sS' p'
p1376
F33.812777386757041
sS'3?'
p1377
F33.812777386757041
sS'g\x92'
p1378
F33.812777386757041
sS'g\x9f'
p1379
F33.812777386757041
sS'34'
p1380
F33.812777386757041
sS' \x92'
p1381
F33.812777386757041
sS'g\x83'
p1382
F33.812777386757041
sS'3-'
p1383
F33.812777386757041
sS'3#'
p1384
F33.812777386757041
sS'3 '
p1385
F33.812777386757041
sS' \x9f'
p1386
F33.812777386757041
sS'gk'
p1387
F33.812777386757041
sS' v'
p1388
F33.812777386757041
sS' z'
p1389
F33.812777386757041
sS' y'
p1390
F33.812777386757041
sS'l@'
p1391
F33.812777386757041
sS'lf'
p1392
F15.888724603831996
sS'lg'
p1393
F33.812777386757041
sS'ld'
p1394
F33.812777386757041
sS'le'
p1395
F17.849226498824802
sS'lb'
p1396
F18.171713483541279
sS'lc'
p1397
F33.812777386757041
sS'la'
p1398
F9.8966011486962984
sS'ln'
p1399
F33.812777386757041
sS'lo'
p1400
F15.827396814229324
sS'll'
p1401
F16.321073013401922
sS'lm'
p1402
F23.360536146326226
sS'lj'
p1403
F15.593850003814095
sS'lk'
p1404
F33.812777386757041
sS'lh'
p1405
F21.081246210295099
sS'li'
p1406
F33.812777386757041
sS'lv'
p1407
F21.742320970812393
sS'lt'
p1408
F25.16531896030212
sS'lu'
p1409
F16.739503993613297
sS'ls'
p1410
F19.01912327925081
sS'lp'
p1411
F14.544351893756497
sS'l~'
p1412
F33.812777386757041
sS'lz'
p1413
F16.72804165030777
sS'ly'
p1414
F33.812777386757041
sS'l#'
p1415
F10.330763559890807
sS'l '
p1416
F33.812777386757041
sS'l/'
p1417
F33.812777386757041
sS'l-'
p1418
F33.812777386757041
sS'l4'
p1419
F33.812777386757041
sS'l3'
p1420
F33.812777386757041
sS'l?'
p1421
F33.812777386757041
sS'l:'
p1422
F33.812777386757041
sS'l\xc3'
p1423
F33.812777386757041
sS'l\xca'
p1424
F20.93991015997047
sS'l\xc9'
p1425
F16.240395419511295
sS'l\x83'
p1426
F33.812777386757041
sS'l\x92'
p1427
F33.812777386757041
sS'l\x9f'
p1428
F33.812777386757041
sS'l\xaf'
p1429
F33.812777386757041
sS'l\xab'
p1430
F33.812777386757041
sS'l\xbe'
p1431
F33.812777386757041
sS'l\xb8'
p1432
F33.812777386757041
sS'\x924'
p1433
F33.812777386757041
sS'\x923'
p1434
F33.812777386757041
sS'\x92?'
p1435
F33.812777386757041
sS'\x92:'
p1436
F33.812777386757041
sS'\x92 '
p1437
F33.812777386757041
sS'\x92#'
p1438
F13.057540152493809
sS'\x92-'
p1439
F33.812777386757041
sS'\x92/'
p1440
F33.812777386757041
sS'\x92t'
p1441
F33.812777386757041
sS'\x92u'
p1442
F11.164064116896284
sS'\x92v'
p1443
F24.167118954348336
sS'\x92p'
p1444
F33.812777386757041
sS'\x92s'
p1445
F33.812777386757041
sS'\x92~'
p1446
F33.812777386757041
sS'\x92y'
p1447
F13.034814994191944
sS'\x92z'
p1448
F19.434143846184842
sS'\x92d'
p1449
F15.634127123039599
sS'\x92e'
p1450
F7.7927046202050532
sS'\x92f'
p1451
F33.812777386757041
sS'\x92g'
p1452
F33.812777386757041
sS'\x92a'
p1453
F8.9743710735207554
sS'\x92b'
p1454
F16.477168955376463
sS'\x92c'
p1455
F33.812777386757041
sS'\x92l'
p1456
F33.812777386757041
sS'\x92m'
p1457
F21.553916955347287
sS'\x92n'
p1458
F21.413766553805054
sS'\x92o'
p1459
F17.961882465927705
sS'\x92h'
p1460
F33.812777386757041
sS'\x92i'
p1461
F10.439180844482287
sS'\x92j'
p1462
F33.812777386757041
sS'\x92k'
p1463
F33.812777386757041
sS'\x92@'
p1464
F33.812777386757041
sS'\x92\xbe'
p1465
F33.812777386757041
sS'\x92\xb8'
p1466
F33.812777386757041
sS'\x92\xaf'
p1467
F33.812777386757041
sS'\x92\xab'
p1468
F33.812777386757041
sS'\x92\x92'
p1469
F33.812777386757041
sS'\x92\x9f'
p1470
F33.812777386757041
sS'\x92\x83'
p1471
F33.812777386757041
sS'@\xb8'
p1472
F33.812777386757041
sS'\x92\xc3'
p1473
F16.55788717531161
sS'4\xca'
p1474
F33.812777386757041
sS'\x92\xc9'
p1475
F11.075585962649608
sS'\x92\xca'
p1476
F33.812777386757041
sS'\xb8/'
p1477
F33.812777386757041
sS'\xb8-'
p1478
F33.812777386757041
sS'\xb8#'
p1479
F15.777672236399422
sS'\xb8 '
p1480
F33.812777386757041
sS'4\xc9'
p1481
F33.812777386757041
sS'\xaf@'
p1482
F33.812777386757041
sS'\xb8:'
p1483
F13.015210053272035
sS'\xb8?'
p1484
F33.812777386757041
sS'\xb83'
p1485
F33.812777386757041
sS'\xb84'
p1486
F33.812777386757041
sS'\xafo'
p1487
F26.161725695578113
sS'\xafn'
p1488
F9.0914847297253818
sS'\xafm'
p1489
F9.5824624620372205
sS'\xafl'
p1490
F14.010783333307254
sS'\xafk'
p1491
F8.8368452573021141
sS'\xafj'
p1492
F14.465880644387685
sS'\xafi'
p1493
F33.812777386757041
sS'\xafh'
p1494
F18.878856258292668
sS'\xafg'
p1495
F33.812777386757041
sS'\xaff'
p1496
F13.543097079884731
sS'\xafe'
p1497
F33.812777386757041
sS'\xafd'
p1498
F11.391742693987823
sS'\xafc'
p1499
F33.812777386757041
sS'\xafb'
p1500
F19.298494825082038
sS'\xafa'
p1501
F24.844110593561837
sS'4\xc3'
p1502
F33.812777386757041
sS'\xaf~'
p1503
F33.812777386757041
sS'\xafz'
p1504
F10.020583548418292
sS'\xafy'
p1505
F33.812777386757041
sS'\xafv'
p1506
F15.716674807756117
sS'\xafu'
p1507
F33.812777386757041
sS'\xaft'
p1508
F12.785958825153042
sS'\xafs'
p1509
F11.990333757541761
sS'\xafp'
p1510
F12.063298686537644
sS'\xb8j'
p1511
F8.8564148344638181
sS'\xb8k'
p1512
F15.438446814086156
sS'\xb8h'
p1513
F17.667064112975314
sS'\xb8i'
p1514
F33.812777386757041
sS'\xb8n'
p1515
F9.4693825640340261
sS'\xb8o'
p1516
F33.812777386757041
sS'\xb8l'
p1517
F33.812777386757041
sS't~'
p1518
F33.812777386757041
sS'\xb8b'
p1519
F14.600725167545463
sS'\xb8c'
p1520
F33.812777386757041
sS'\xb8a'
p1521
F33.812777386757041
sS'\xb8f'
p1522
F15.29970908999441
sS'\xb8g'
p1523
F21.614025421563309
sS'\xb8d'
p1524
F13.486913099247813
sS'\xb8e'
p1525
F33.812777386757041
sS'\xb8z'
p1526
F10.070261835204708
sS'\xb8y'
p1527
F14.477611685518223
sS'\xb8~'
p1528
F33.812777386757041
sS'\xb8s'
p1529
F14.075006863203278
sS'\xb8p'
p1530
F12.846147316499504
sS'\xb8v'
p1531
F14.483951280959253
sS'\xb8t'
p1532
F10.861684626926298
sS'\xb8u'
p1533
F33.812777386757041
sS'\xaf/'
p1534
F33.812777386757041
sS'\xaf-'
p1535
F33.812777386757041
sS'\xb8@'
p1536
F33.812777386757041
sS'\xaf#'
p1537
F7.837715548862243
sS'\xaf '
p1538
F33.812777386757041
sS'\xaf?'
p1539
F33.812777386757041
sS'\xaf:'
p1540
F16.970463877326537
sS'\xaf4'
p1541
F33.812777386757041
sS'\xaf3'
p1542
F33.812777386757041
sS'\xb8\xab'
p1543
F33.812777386757041
sS'\xaf\xca'
p1544
F10.377414747536987
sS'\xaf\xc9'
p1545
F7.3700017082921283
sS'\xaf\xc3'
p1546
F33.812777386757041
sS'\xb8\xb8'
p1547
F33.812777386757041
sS'\xb8\xbe'
p1548
F33.812777386757041
sS'\xb8\x83'
p1549
F33.812777386757041
sS'\xb8\x9f'
p1550
F33.812777386757041
sS'\xb8\x92'
p1551
F33.812777386757041
sS'\xaf\x83'
p1552
F33.812777386757041
sS'\xaf\x9f'
p1553
F33.812777386757041
sS'\xaf\x92'
p1554
F33.812777386757041
sS'\xaf\xaf'
p1555
F33.812777386757041
sS'\xb8\xc9'
p1556
F9.5021631490687515
sS'\xaf\xab'
p1557
F33.812777386757041
sS'\xb8\xc3'
p1558
F33.812777386757041
sS'\xaf\xbe'
p1559
F33.812777386757041
sS'\xaf\xb8'
p1560
F33.812777386757041
sS'ck'
p1561
F33.812777386757041
sS'cj'
p1562
F33.812777386757041
sS'ci'
p1563
F33.812777386757041
sS'ch'
p1564
F33.812777386757041
sS'co'
p1565
F33.812777386757041
sS'/\xca'
p1566
F33.812777386757041
sS'/\xc9'
p1567
F33.812777386757041
sS'cl'
p1568
F33.812777386757041
sS'cc'
p1569
F17.039625298889135
sS'cb'
p1570
F33.812777386757041
sS'ca'
p1571
F13.628186511102546
sS'cg'
p1572
F33.812777386757041
sS'cf'
p1573
F33.812777386757041
sS'ce'
p1574
F33.812777386757041
sS'cd'
p1575
F33.812777386757041
sS'cz'
p1576
F33.812777386757041
sS'cy'
p1577
F33.812777386757041
sS'c~'
p1578
F33.812777386757041
sS'cs'
p1579
F33.812777386757041
sS'cp'
p1580
F33.812777386757041
sS'cv'
p1581
F33.812777386757041
sS'cu'
p1582
F17.757389024176582
sS'ct'
p1583
F33.812777386757041
sS'v\xc3'
p1584
F33.812777386757041
sS'v\xc9'
p1585
F12.148895762405628
sS'v\xca'
p1586
F15.405704679727856
sS'c@'
p1587
F33.812777386757041
sS'c/'
p1588
F33.812777386757041
sS'c-'
p1589
F33.812777386757041
sS'c#'
p1590
F19.070836461878912
sS'v\xab'
p1591
F33.812777386757041
sS'/\x83'
p1592
F33.812777386757041
sS'v\xaf'
p1593
F33.812777386757041
sS'/\x9f'
p1594
F33.812777386757041
sS'c:'
p1595
F33.812777386757041
sS'c?'
p1596
F33.812777386757041
sS'v\xb8'
p1597
F33.812777386757041
sS'/\x92'
p1598
F33.812777386757041
sS'v\xbe'
p1599
F33.812777386757041
sS'c4'
p1600
F33.812777386757041
sS'/\xaf'
p1601
F33.812777386757041
sS'v\x83'
p1602
F33.812777386757041
sS'/\xab'
p1603
F33.812777386757041
sS'/\xbe'
p1604
F33.812777386757041
sS'v\x92'
p1605
F33.812777386757041
sS'/\xb8'
p1606
F33.812777386757041
sS'v\x9f'
p1607
F33.812777386757041
sS'va'
p1608
F7.6919891117056407
sS'vb'
p1609
F16.028724101713191
sS'vc'
p1610
F33.812777386757041
sS'vd'
p1611
F16.452093163514789
sS've'
p1612
F6.6348178233355481
sS'vf'
p1613
F33.812777386757041
sS'vg'
p1614
F13.722353495642519
sS'vh'
p1615
F16.809160657287453
sS'vi'
p1616
F11.868389526486247
sS'vj'
p1617
F16.583949303745896
sS'vk'
p1618
F14.569703376914029
sS'vl'
p1619
F23.997394090943505
sS'vm'
p1620
F15.613368632336435
sS'vn'
p1621
F19.99889601186295
sS'/@'
p1622
F33.812777386757041
sS'vp'
p1623
F33.812777386757041
sS'tu'
p1624
F11.214043103442302
sS'vs'
p1625
F15.159089081327858
sS'vt'
p1626
F17.772295010988319
sS'vu'
p1627
F12.082660135127837
sS'vv'
p1628
F16.82683541427221
sS'vy'
p1629
F13.900231542909657
sS'vz'
p1630
F18.329685909337531
sS'v~'
p1631
F33.812777386757041
sS'v@'
p1632
F33.812777386757041
sS'/n'
p1633
F33.812777386757041
sS'c\xc9'
p1634
F33.812777386757041
sS'/l'
p1635
F33.812777386757041
sS'/k'
p1636
F33.812777386757041
sS'/j'
p1637
F33.812777386757041
sS'/i'
p1638
F33.812777386757041
sS'/h'
p1639
F33.812777386757041
sS'/g'
p1640
F33.812777386757041
sS'/f'
p1641
F33.812777386757041
sS'/e'
p1642
F33.812777386757041
sS'/d'
p1643
F33.812777386757041
sS'/c'
p1644
F33.812777386757041
sS'/b'
p1645
F33.812777386757041
sS'/a'
p1646
F33.812777386757041
sS'/~'
p1647
F33.812777386757041
sS'/z'
p1648
F33.812777386757041
sS'/y'
p1649
F33.812777386757041
sS'/v'
p1650
F33.812777386757041
sS'/u'
p1651
F33.812777386757041
sS'/t'
p1652
F33.812777386757041
sS'/s'
p1653
F33.812777386757041
sS'/p'
p1654
F33.812777386757041
sS'v '
p1655
F33.812777386757041
sS'v#'
p1656
F12.092940316877893
sS'c\xaf'
p1657
F33.812777386757041
sS'v-'
p1658
F33.812777386757041
sS'v/'
p1659
F33.812777386757041
sS'v3'
p1660
F33.812777386757041
sS'v4'
p1661
F33.812777386757041
sS'c\xbe'
p1662
F33.812777386757041
sS'v:'
p1663
F33.812777386757041
sS'v?'
p1664
F33.812777386757041
sS'//'
p1665
F33.812777386757041
sS'/-'
p1666
F33.812777386757041
sS'c\x83'
p1667
F33.812777386757041
sS'/#'
p1668
F33.812777386757041
sS'/ '
p1669
F33.812777386757041
sS'/?'
p1670
F33.812777386757041
sS'c\x9f'
p1671
F33.812777386757041
sS'/:'
p1672
F33.812777386757041
sS'c\x92'
p1673
F33.812777386757041
sS'/4'
p1674
F22.03922604032854
sS'/3'
p1675
F33.812777386757041
sS'tn'
p1676
F16.419881432078377
sS'tl'
p1677
F24.581556206045857
sS'-n'
p1678
F33.812777386757041
sS'tk'
p1679
F13.906384388363733
sS'th'
p1680
F14.23412276228269
sS'h:'
p1681
F33.812777386757041
sS'4\x9f'
p1682
F33.812777386757041
sS'h?'
p1683
F33.812777386757041
sS'h3'
p1684
F33.812777386757041
sS'4\x92'
p1685
F33.812777386757041
sS'h4'
p1686
F33.812777386757041
sS'h/'
p1687
F33.812777386757041
sS'h-'
p1688
F33.812777386757041
sS'h#'
p1689
F10.217408688070037
sS'h '
p1690
F33.812777386757041
sS'4\x83'
p1691
F33.812777386757041
sS'4\xbe'
p1692
F33.812777386757041
sS'4\xb8'
p1693
F33.812777386757041
sS'-u'
p1694
F33.812777386757041
sS'4\xaf'
p1695
F33.812777386757041
sS'4\xab'
p1696
F33.812777386757041
sS'hz'
p1697
F19.355075887410528
sS'hy'
p1698
F14.108899153136999
sS'h~'
p1699
F33.812777386757041
sS'-t'
p1700
F33.812777386757041
sS'hs'
p1701
F15.837438776782607
sS'hp'
p1702
F19.12994735340812
sS'hv'
p1703
F13.219275928568399
sS'ht'
p1704
F12.127946170218044
sS'hu'
p1705
F13.055096840021282
sS'hj'
p1706
F20.676907810108524
sS'hk'
p1707
F15.143778173347501
sS'hh'
p1708
F19.734209578978767
sS'hi'
p1709
F8.7333770390278058
sS'hn'
p1710
F15.434207343502594
sS'ho'
p1711
F11.769709706878066
sS'hl'
p1712
F16.209636445197436
sS'hm'
p1713
F13.059579411908325
sS'hb'
p1714
F13.269563329887369
sS'hc'
p1715
F17.523244753511996
sS'ha'
p1716
F6.4539353593053708
sS'hf'
p1717
F17.715629982590087
sS'hg'
p1718
F33.812777386757041
sS'hd'
p1719
F14.659638554291025
sS'he'
p1720
F8.1437410454149894
sS'te'
p1721
F8.1246764855423184
sS'h@'
p1722
F33.812777386757041
sS'-v'
p1723
F33.812777386757041
sS'h\xb8'
p1724
F33.812777386757041
sS'h\xbe'
p1725
F33.812777386757041
sS'tb'
p1726
F14.406121858665378
sS'h\xab'
p1727
F33.812777386757041
sS'h\xaf'
p1728
F33.812777386757041
sS'4?'
p1729
F33.812777386757041
sS'4:'
p1730
F33.812777386757041
sS'h\x9f'
p1731
F33.812777386757041
sS'h\x92'
p1732
F33.812777386757041
sS'44'
p1733
F33.812777386757041
sS'43'
p1734
F33.812777386757041
sS'4/'
p1735
F33.812777386757041
sS'4-'
p1736
F33.812777386757041
sS'h\x83'
p1737
F33.812777386757041
sS'4#'
p1738
F33.812777386757041
sS'4 '
p1739
F33.812777386757041
sS'4g'
p1740
F33.812777386757041
sS'4@'
p1741
F33.812777386757041
sS'4~'
p1742
F33.812777386757041
sS'4z'
p1743
F33.812777386757041
sS'4y'
p1744
F33.812777386757041
sS'4v'
p1745
F33.812777386757041
sS'ta'
p1746
F7.3704936802253851
sS'4t'
p1747
F22.03922604032854
sS'4u'
p1748
F33.812777386757041
sS'4s'
p1749
F33.812777386757041
sS'4p'
p1750
F33.812777386757041
sS'h\xca'
p1751
F16.507134193712872
sS'4o'
p1752
F33.812777386757041
sS'4l'
p1753
F33.812777386757041
sS'h\xc9'
p1754
F12.600489410015573
sS'4j'
p1755
F33.812777386757041
sS'4k'
p1756
F33.812777386757041
sS'4h'
p1757
F33.812777386757041
sS'4i'
p1758
F33.812777386757041
sS'4f'
p1759
F33.812777386757041
sS'h\xc3'
p1760
F18.78086084675633
sS'4d'
p1761
F33.812777386757041
sS'4e'
p1762
F33.812777386757041
sS'4b'
p1763
F33.812777386757041
sS'4c'
p1764
F33.812777386757041
sS'4a'
p1765
F33.812777386757041
s.