(dp1
S'@\xc3'
p2
F23.729280514057059
sS'4;'
p3
F23.729280514057059
sS'\x9f?'
p4
F23.729280514057059
sS'tz'
p5
F15.08182208760214
sS'ty'
p6
F9.8469240454028437
sS'tv'
p7
F14.498059333345875
sS'tt'
p8
F10.131111672212327
sS'\xab@'
p9
F23.729280514057059
sS'-i'
p10
F16.078228822878131
sS'ts'
p11
F12.692420067384013
sS'tp'
p12
F16.078228822878131
sS' :'
p13
F23.729280514057059
sS'\xab_'
p14
F23.729280514057059
sS'\xabc'
p15
F23.729280514057059
sS'\xabb'
p16
F11.763135600711458
sS'\xaba'
p17
F7.100991623744572
sS'\xabg'
p18
F10.763315903784976
sS'\xabf'
p19
F13.17757225243637
sS'm#'
p20
F7.6116982837361196
sS'\xabd'
p21
F9.9254521032662293
sS'm-'
p22
F23.729280514057059
sS'\xabj'
p23
F11.303802326411732
sS'm/'
p24
F23.729280514057059
sS'\xabh'
p25
F12.277554245982554
sS'\xabo'
p26
F9.9560382613717593
sS'\xabn'
p27
F14.498059333345875
sS'\xabm'
p28
F8.8955503588839004
sS'\xabl'
p29
F23.729280514057059
sS'\xabs'
p30
F12.56123524583297
sS'm4'
p31
F23.729280514057059
sS'\xabp'
p32
F12.499860825826643
sS'\xabv'
p33
F12.277554245982554
sS'\xabu'
p34
F9.4487272083219285
sS'\xabt'
p35
F9.5539648823578869
sS'\xabz'
p36
F13.762054255221067
sS'\xaby'
p37
F10.142792531431068
sS'\xab~'
p38
F23.729280514057059
sS'm;'
p39
F23.729280514057059
sS'm:'
p40
F23.729280514057059
sS'm@'
p41
F23.729280514057059
sS'm_'
p42
F23.729280514057059
sS'me'
p43
F6.5165086721483085
sS'md'
p44
F10.935474022601289
sS'mg'
p45
F14.760613720861851
sS'\xab '
p46
F15.495660837297359
sS'ma'
p47
F6.0513062983974688
sS'mc'
p48
F16.078228822878131
sS'mb'
p49
F10.15456873787377
sS'mm'
p50
F11.470420082647303
sS'ml'
p51
F14.760613720861851
sS'mo'
p52
F10.455921984790361
sS'mn'
p53
F13.62468176049269
sS'\xab/'
p54
F23.729280514057059
sS'mh'
p55
F13.913897218243521
sS'\xab-'
p56
F23.729280514057059
sS'mj'
p57
F12.914698048150784
sS'mu'
p58
F8.5307971035659627
sS'mt'
p59
F12.836737697408507
sS'mv'
p60
F16.078228822878131
sS'mp'
p61
F11.202536771057373
sS'ms'
p62
F11.692763443570541
sS'\xab4'
p63
F23.729280514057059
sS'\xab;'
p64
F23.729280514057059
sS'\xab:'
p65
F17.071069031305264
sS'm~'
p66
F23.729280514057059
sS'my'
p67
F8.043737797287374
sS'mz'
p68
F13.499260078351424
sS'\xab\xc3'
p69
F13.383875267339263
sS'm\x83'
p70
F23.729280514057059
sS'\xab\xca'
p71
F15.08182208760214
sS'\xab\xc9'
p72
F7.7861934061555163
sS'm\x92'
p73
F23.729280514057059
sS'm\x9f'
p74
F23.729280514057059
sS'#\xb8'
p75
F23.729280514057059
sS'm\xaf'
p76
F23.729280514057059
sS'm\xab'
p77
F23.729280514057059
sS'm\xbe'
p78
F23.729280514057059
sS'm\xb8'
p79
F23.729280514057059
sS'\xab\x83'
p80
F23.729280514057059
sS'm\xc3'
p81
F14.498059333345875
sS'm\xc9'
p82
F9.6015279517810033
sS'm\xca'
p83
F13.913897218243521
sS'\xab\x92'
p84
F23.729280514057059
sS'\xab\x9f'
p85
F23.729280514057059
sS'\xab\xab'
p86
F23.729280514057059
sS'\xab\xaf'
p87
F23.729280514057059
sS'\xab\xb8'
p88
F23.729280514057059
sS'\xab\xbe'
p89
F23.729280514057059
sS'__'
p90
F23.729280514057059
sS'_@'
p91
F23.729280514057059
sS'_~'
p92
F23.729280514057059
sS'_z'
p93
F23.729280514057059
sS'_y'
p94
F23.729280514057059
sS'_v'
p95
F23.729280514057059
sS'_u'
p96
F23.729280514057059
sS'_t'
p97
F23.729280514057059
sS'_s'
p98
F23.729280514057059
sS'_p'
p99
F23.729280514057059
sS'_o'
p100
F23.729280514057059
sS'_n'
p101
F23.729280514057059
sS'_m'
p102
F23.729280514057059
sS'_l'
p103
F23.729280514057059
sS'_k'
p104
F23.729280514057059
sS'_j'
p105
F23.729280514057059
sS'_i'
p106
F23.729280514057059
sS'_h'
p107
F23.729280514057059
sS'_g'
p108
F23.729280514057059
sS'_f'
p109
F23.729280514057059
sS'_e'
p110
F17.071069031305264
sS'_d'
p111
F23.729280514057059
sS'_c'
p112
F23.729280514057059
sS'_b'
p113
F23.729280514057059
sS'_a'
p114
F23.729280514057059
sS'\x9f~'
p115
F23.729280514057059
sS'- '
p116
F23.729280514057059
sS'_?'
p117
F23.729280514057059
sS'_;'
p118
F23.729280514057059
sS'_:'
p119
F23.729280514057059
sS'_4'
p120
F23.729280514057059
sS'_3'
p121
F23.729280514057059
sS'_/'
p122
F23.729280514057059
sS'_-'
p123
F23.729280514057059
sS'\x9fv'
p124
F23.729280514057059
sS'_#'
p125
F23.729280514057059
sS't4'
p126
F23.729280514057059
sS'_ '
p127
F23.729280514057059
sS't3'
p128
F23.729280514057059
sS'_\xca'
p129
F23.729280514057059
sS'_\xc9'
p130
F23.729280514057059
sS'_\xc3'
p131
F23.729280514057059
sS'\x9fn'
p132
F23.729280514057059
sS'\x9fl'
p133
F23.729280514057059
sS'_\x9f'
p134
F23.729280514057059
sS'\x9fi'
p135
F17.071069031305264
sS'_\x92'
p136
F23.729280514057059
sS'_\x83'
p137
F23.729280514057059
sS'\x9fe'
p138
F23.729280514057059
sS'_\xbe'
p139
F23.729280514057059
sS'_\xb8'
p140
F23.729280514057059
sS'\x9fc'
p141
F23.729280514057059
sS't#'
p142
F6.4707052793352355
sS'_\xaf'
p143
F23.729280514057059
sS'_\xab'
p144
F23.729280514057059
sS't '
p145
F16.078228822878131
sS'\xc3\x83'
p146
F23.729280514057059
sS'\xc3\x9f'
p147
F23.729280514057059
sS'\xc3\x92'
p148
F23.729280514057059
sS'\xc3\xab'
p149
F23.729280514057059
sS'\xc3\xaf'
p150
F23.729280514057059
sS'\xc3\xb8'
p151
F7.6696614332326609
sS'\xc3\xbe'
p152
F23.729280514057059
sS'\xc3\xca'
p153
F23.729280514057059
sS'\xc3\xc9'
p154
F23.729280514057059
sS'\xc3\xc3'
p155
F23.729280514057059
sS'\xc3/'
p156
F23.729280514057059
sS'\xc3-'
p157
F23.729280514057059
sS'\xc3#'
p158
F23.729280514057059
sS'\xc3 '
p159
F23.729280514057059
sS't\xc3'
p160
F11.470420082647303
sS'\xc3;'
p161
F23.729280514057059
sS'\xc3:'
p162
F23.729280514057059
sS'\xc3?'
p163
F23.729280514057059
sS'\xc33'
p164
F23.729280514057059
sS'\xc34'
p165
F23.729280514057059
sS'\x9f\xbe'
p166
F23.729280514057059
sS'\xc3@'
p167
F23.729280514057059
sS'\xc3_'
p168
F23.729280514057059
sS'o_'
p169
F23.729280514057059
sS'\xc3k'
p170
F23.729280514057059
sS'\xc3j'
p171
F23.729280514057059
sS'\xc3i'
p172
F23.729280514057059
sS'\xc3h'
p173
F23.729280514057059
sS'\xc3o'
p174
F23.729280514057059
sS'\xc3n'
p175
F23.729280514057059
sS'\xc3m'
p176
F23.729280514057059
sS'\xc3l'
p177
F23.729280514057059
sS'\xc3c'
p178
F23.729280514057059
sS'\xc3b'
p179
F23.729280514057059
sS'\xc3a'
p180
F23.729280514057059
sS'\x9f\xb8'
p181
F23.729280514057059
sS'\xc3g'
p182
F23.729280514057059
sS'\xc3f'
p183
F23.729280514057059
sS'\xc3e'
p184
F23.729280514057059
sS'\xc3d'
p185
F23.729280514057059
sS'\xc3z'
p186
F23.729280514057059
sS'\xc3y'
p187
F23.729280514057059
sS'\xc3~'
p188
F23.729280514057059
sS'\xc3s'
p189
F23.729280514057059
sS'\xc3p'
p190
F23.729280514057059
sS'\xc3v'
p191
F23.729280514057059
sS'\xc3u'
p192
F23.729280514057059
sS'\xc3t'
p193
F23.729280514057059
sS'\xbe\xb8'
p194
F23.729280514057059
sS'd/'
p195
F23.729280514057059
sS'd-'
p196
F23.729280514057059
sS'\xbe\xbe'
p197
F23.729280514057059
sS'd#'
p198
F11.530528548863323
sS'd '
p199
F23.729280514057059
sS'd?'
p200
F23.729280514057059
sS'\xbe\xab'
p201
F23.729280514057059
sS'd:'
p202
F23.729280514057059
sS'd;'
p203
F23.729280514057059
sS'\xbe\xaf'
p204
F23.729280514057059
sS'd4'
p205
F23.729280514057059
sS'd3'
p206
F23.729280514057059
sS'\xbe\x9f'
p207
F23.729280514057059
sS'\xbe\x92'
p208
F23.729280514057059
sS'@v'
p209
F23.729280514057059
sS'\xbe\x83'
p210
F23.729280514057059
sS'dn'
p211
F17.071069031305264
sS'do'
p212
F9.6015279517810033
sS'dl'
p213
F16.078228822878131
sS'dm'
p214
F15.08182208760214
sS'dj'
p215
F12.692420067384013
sS'dk'
p216
F17.071069031305264
sS'dh'
p217
F16.078228822878131
sS'di'
p218
F8.0139351460819732
sS'df'
p219
F17.071069031305264
sS'dg'
p220
F23.729280514057059
sS'dd'
p221
F11.154450498719429
sS'de'
p222
F7.7976888617968942
sS'db'
p223
F14.498059333345875
sS'dc'
p224
F23.729280514057059
sS'da'
p225
F7.8710809158907082
sS'd~'
p226
F23.729280514057059
sS'dz'
p227
F23.729280514057059
sS'dy'
p228
F9.6259107366645384
sS'dv'
p229
F15.08182208760214
sS'dt'
p230
F23.729280514057059
sS'du'
p231
F9.8661589818986659
sS'ds'
p232
F16.078228822878131
sS'dp'
p233
F23.729280514057059
sS'd@'
p234
F23.729280514057059
sS'\xbe\xc9'
p235
F8.1546574235993781
sS'\xbe\xca'
p236
F11.441279624349486
sS'\xbe\xc3'
p237
F13.17757225243637
sS'd\xaf'
p238
F23.729280514057059
sS'\xbe:'
p239
F23.729280514057059
sS'\xbe;'
p240
F23.729280514057059
sS'd\xab'
p241
F23.729280514057059
sS'\xbe?'
p242
F23.729280514057059
sS'\xbe3'
p243
F23.729280514057059
sS'\xbe4'
p244
F23.729280514057059
sS'd\xbe'
p245
F23.729280514057059
sS'\xbe-'
p246
F23.729280514057059
sS'd\xb8'
p247
F23.729280514057059
sS'\xbe/'
p248
F23.729280514057059
sS'\xbe '
p249
F17.071069031305264
sS'\xbe#'
p250
F6.8058021367194907
sS'd\x83'
p251
F23.729280514057059
sS'd\x9f'
p252
F23.729280514057059
sS'd\x92'
p253
F23.729280514057059
sS'\xbey'
p254
F10.096626043947582
sS'\xbez'
p255
F12.08497355251148
sS'\xbe~'
p256
F23.729280514057059
sS'\xbep'
p257
F10.658991824095381
sS'\xbes'
p258
F10.41285754855347
sS'\xbet'
p259
F8.5696850686394868
sS'\xbeu'
p260
F9.2524710354069022
sS'\xbev'
p261
F12.08497355251148
sS'\xbeh'
p262
F11.593250664671508
sS'\xbei'
p263
F7.835102216996753
sS'\xbej'
p264
F11.202536771057373
sS'\xbek'
p265
F9.7724506363140158
sS'\xbel'
p266
F16.078228822878131
sS'\xbem'
p267
F8.0797717073645838
sS'\xben'
p268
F10.89540214947969
sS'\xbeo'
p269
F9.9153991391629646
sS'\xbea'
p270
F7.013948553841538
sS'\xbeb'
p271
F10.441423872216516
sS'\xbec'
p272
F16.078228822878131
sS'\xbed'
p273
F8.9926143383581412
sS'\xbee'
p274
F7.68239099074595
sS'\xbef'
p275
F11.955729167628554
sS'\xbeg'
p276
F9.8565094573229075
sS'd\xca'
p277
F6.540450234932103
sS'd\xc9'
p278
F9.0685603351598605
sS'd\xc3'
p279
F11.357231688784287
sS'\xbe@'
p280
F23.729280514057059
sS'i\xc9'
p281
F6.6455830537649616
sS'i\xca'
p282
F9.0464504807081347
sS'i\xc3'
p283
F17.071069031305264
sS'i\xb8'
p284
F23.729280514057059
sS'i\xbe'
p285
F23.729280514057059
sS'i\xab'
p286
F23.729280514057059
sS'i\xaf'
p287
F23.729280514057059
sS'i\x9f'
p288
F23.729280514057059
sS'i\x92'
p289
F23.729280514057059
sS'i\x83'
p290
F23.729280514057059
sS'iy'
p291
F16.078228822878131
sS'iz'
p292
F8.9458218133919889
sS'i~'
p293
F23.729280514057059
sS'ip'
p294
F9.4706408751549489
sS'is'
p295
F8.1253934227251747
sS'iu'
p296
F17.071069031305264
sS'it'
p297
F7.9305809050129366
sS'iv'
p298
F10.955935222765788
sS'ii'
p299
F12.499860825826643
sS'ih'
p300
F9.5231055690096387
sS'ik'
p301
F7.8069516344447019
sS'ij'
p302
F8.5117392712743616
sS'im'
p303
F8.4670021126932884
sS'il'
p304
F11.107915419742197
sS'io'
p305
F14.08362208164835
sS'in'
p306
F7.613728790384922
sS'ia'
p307
F11.763135600711458
sS'ic'
p308
F12.914698048150784
sS'ib'
p309
F10.265117695388511
sS'ie'
p310
F13.383875267339263
sS'id'
p311
F9.1253644538177934
sS'ig'
p312
F11.955729167628554
sS'if'
p313
F9.5079199644520678
sS'i_'
p314
F23.729280514057059
sS'@3'
p315
F23.729280514057059
sS'i@'
p316
F23.729280514057059
sS'i;'
p317
F23.729280514057059
sS'i:'
p318
F8.3338467923787469
sS'i?'
p319
F23.729280514057059
sS't/'
p320
F23.729280514057059
sS'i3'
p321
F17.071069031305264
sS'i4'
p322
F23.729280514057059
sS'i-'
p323
F23.729280514057059
sS'i/'
p324
F23.729280514057059
sS'i '
p325
F16.078228822878131
sS'i#'
p326
F7.1502445383387752
sS'-\xb8'
p327
F23.729280514057059
sS'33'
p328
F23.729280514057059
sS'\x9fa'
p329
F11.955729167628554
sS'\x9f#'
p330
F23.729280514057059
sS'm '
p331
F16.078228822878131
sS'\xabe'
p332
F7.3388932081887681
sS'\x9f '
p333
F23.729280514057059
sS'\xabk'
p334
F10.745396221892404
sS'\xabi'
p335
F7.5875525331809559
sS'n\xc9'
p336
F9.2524710354069022
sS'n\xca'
p337
F12.226945933859062
sS'n\xc3'
p338
F13.277039273626242
sS'm3'
p339
F23.729280514057059
sS'n\x83'
p340
F23.729280514057059
sS'n\x9f'
p341
F23.729280514057059
sS'n\x92'
p342
F23.729280514057059
sS' k'
p343
F15.495660837297359
sS'm?'
p344
F23.729280514057059
sS'n\xab'
p345
F23.729280514057059
sS'3/'
p346
F17.071069031305264
sS'n\xaf'
p347
F23.729280514057059
sS'n\xb8'
p348
F23.729280514057059
sS'n\xbe'
p349
F23.729280514057059
sS'n@'
p350
F23.729280514057059
sS'n_'
p351
F23.729280514057059
sS'nh'
p352
F12.384429830114067
sS'ni'
p353
F8.6137084711657366
sS'nj'
p354
F10.915298962442382
sS'nk'
p355
F10.096626043947582
sS'nl'
p356
F23.729280514057059
sS'nm'
p357
F9.1487275009696045
sS'nn'
p358
F11.65882409811241
sS'no'
p359
F10.658991824095381
sS'na'
p360
F7.7861934061555163
sS'nb'
p361
F11.875581093756841
sS'nc'
p362
F15.495660837297359
sS'nd'
p363
F8.1196111860079654
sS'ne'
p364
F8.1196111860079654
sS'nf'
p365
F12.178052910458772
sS'ng'
p366
F9.72778435313632
sS'ny'
p367
F11.441279624349486
sS'nz'
p368
F12.08497355251148
sS'n~'
p369
F23.729280514057059
sS'np'
p370
F14.08362208164835
sS'ns'
p371
F10.166441860939255
sS'nt'
p372
F8.5041860745712921
sS'nu'
p373
F10.856413287270485
sS'nv'
p374
F14.276009880046438
sS'n-'
p375
F16.078228822878131
sS'n/'
p376
F23.729280514057059
sS'n '
p377
F15.495660837297359
sS'n#'
p378
F6.5716868604085095
sS'n:'
p379
F23.729280514057059
sS'n;'
p380
F23.729280514057059
sS'n?'
p381
F23.729280514057059
sS'n3'
p382
F23.729280514057059
sS'n4'
p383
F23.729280514057059
sS':-'
p384
F23.729280514057059
sS':/'
p385
F23.729280514057059
sS': '
p386
F23.729280514057059
sS':#'
p387
F7.686659259242596
sS':?'
p388
F23.729280514057059
sS'::'
p389
F23.729280514057059
sS':;'
p390
F23.729280514057059
sS':4'
p391
F23.729280514057059
sS'j\xb8'
p392
F23.729280514057059
sS':3'
p393
F23.729280514057059
sS':l'
p394
F12.130762703444438
sS':m'
p395
F9.8856538402642116
sS':n'
p396
F9.3988537650590604
sS':o'
p397
F23.729280514057059
sS':h'
p398
F10.23980882704938
sS':i'
p399
F11.470420082647303
sS':j'
p400
F10.343822512869091
sS':k'
p401
F10.41285754855347
sS':d'
p402
F9.3371643741584158
sS':e'
p403
F15.495660837297359
sS':f'
p404
F10.837306995031504
sS':g'
p405
F14.498059333345875
sS':a'
p406
F14.760613720861851
sS':b'
p407
F10.500311550654331
sS':c'
p408
F14.276009880046438
sS':~'
p409
F23.729280514057059
sS'mf'
p410
F14.08362208164835
sS':y'
p411
F16.078228822878131
sS':z'
p412
F10.202659017809205
sS':t'
p413
F10.62582877234097
sS':u'
p414
F17.071069031305264
sS':v'
p415
F11.357231688784287
sS':p'
p416
F15.08182208760214
sS':s'
p417
F10.38484589213307
sS'\xaf_'
p418
F23.729280514057059
sS':@'
p419
F23.729280514057059
sS':_'
p420
F23.729280514057059
sS':\xaf'
p421
F23.729280514057059
sS':\xab'
p422
F23.729280514057059
sS'mi'
p423
F8.634171993180539
sS':\xbe'
p424
F23.729280514057059
sS':\xb8'
p425
F23.729280514057059
sS'mk'
p426
F12.914698048150784
sS'\xab3'
p427
F23.729280514057059
sS':\x83'
p428
F23.729280514057059
sS':\x9f'
p429
F23.729280514057059
sS':\x92'
p430
F23.729280514057059
sS'j\x9f'
p431
F23.729280514057059
sS':\xc9'
p432
F8.1605821358988067
sS':\xca'
p433
F11.837117204195094
sS'\xab?'
p434
F23.729280514057059
sS':\xc3'
p435
F23.729280514057059
sS's\x9f'
p436
F23.729280514057059
sS's\x92'
p437
F23.729280514057059
sS's\x83'
p438
F23.729280514057059
sS's\xb8'
p439
F23.729280514057059
sS's\xbe'
p440
F23.729280514057059
sS's\xab'
p441
F23.729280514057059
sS's\xaf'
p442
F23.729280514057059
sS'?\xca'
p443
F23.729280514057059
sS'?\xc9'
p444
F23.729280514057059
sS'#\x9f'
p445
F23.729280514057059
sS'?\xc3'
p446
F23.729280514057059
sS'?\xbe'
p447
F23.729280514057059
sS'?\xb8'
p448
F23.729280514057059
sS'?\xaf'
p449
F23.729280514057059
sS's\xca'
p450
F16.078228822878131
sS's\xc9'
p451
F8.2620252370149672
sS'?\xab'
p452
F23.729280514057059
sS'\xc9 '
p453
F23.729280514057059
sS's\xc3'
p454
F11.625664857662512
sS'g4'
p455
F23.729280514057059
sS'?\x9f'
p456
F23.729280514057059
sS'?\x92'
p457
F23.729280514057059
sS'?\x83'
p458
F23.729280514057059
sS'4m'
p459
F23.729280514057059
sS'?~'
p460
F23.729280514057059
sS'?z'
p461
F23.729280514057059
sS'?y'
p462
F23.729280514057059
sS'?v'
p463
F23.729280514057059
sS'?u'
p464
F23.729280514057059
sS'?t'
p465
F23.729280514057059
sS'?s'
p466
F23.729280514057059
sS'?p'
p467
F23.729280514057059
sS'?o'
p468
F23.729280514057059
sS'?n'
p469
F23.729280514057059
sS'?m'
p470
F23.729280514057059
sS'?l'
p471
F23.729280514057059
sS'?k'
p472
F23.729280514057059
sS'?j'
p473
F23.729280514057059
sS'?i'
p474
F23.729280514057059
sS'?h'
p475
F23.729280514057059
sS'?g'
p476
F23.729280514057059
sS'?f'
p477
F23.729280514057059
sS'?e'
p478
F23.729280514057059
sS'?d'
p479
F23.729280514057059
sS'?c'
p480
F23.729280514057059
sS'?b'
p481
F23.729280514057059
sS'?a'
p482
F23.729280514057059
sS'?_'
p483
F23.729280514057059
sS's:'
p484
F23.729280514057059
sS's?'
p485
F23.729280514057059
sS's3'
p486
F23.729280514057059
sS'\xb8m'
p487
F12.178052910458772
sS's4'
p488
F23.729280514057059
sS's/'
p489
F23.729280514057059
sS's-'
p490
F23.729280514057059
sS's#'
p491
F8.4670021126932884
sS's '
p492
F16.078228822878131
sS'?@'
p493
F23.729280514057059
sS'??'
p494
F23.729280514057059
sS'?;'
p495
F23.729280514057059
sS'?:'
p496
F23.729280514057059
sS'?4'
p497
F23.729280514057059
sS'?3'
p498
F23.729280514057059
sS'?/'
p499
F23.729280514057059
sS'?-'
p500
F23.729280514057059
sS's@'
p501
F23.729280514057059
sS'?#'
p502
F23.729280514057059
sS'? '
p503
F17.071069031305264
sS'sz'
p504
F23.729280514057059
sS'sy'
p505
F9.7366076638679289
sS's~'
p506
F23.729280514057059
sS'ss'
p507
F10.818450432760486
sS'sp'
p508
F11.085198920791385
sS'sv'
p509
F12.997113088393673
sS'su'
p510
F9.4780200280686238
sS'st'
p511
F8.1815123599661632
sS'sk'
p512
F9.9872869389575492
sS'sj'
p513
F10.64231501094697
sS'si'
p514
F8.1458157274757959
sS'sh'
p515
F13.913897218243521
sS'so'
p516
F9.9978554064141107
sS'sn'
p517
F12.625337084165503
sS'sm'
p518
F11.303802326411732
sS'sl'
p519
F14.498059333345875
sS'sc'
p520
F14.498059333345875
sS'sb'
p521
F12.440991171876091
sS'sa'
p522
F7.4688571023396282
sS'sg'
p523
F17.071069031305264
sS'sf'
p524
F13.499260078351424
sS'se'
p525
F8.1517041666656915
sS'sd'
p526
F14.08362208164835
sS'e\xc9'
p527
F6.2572799044937657
sS'e\xca'
p528
F8.9204671303624874
sS'e\xc3'
p529
F17.071069031305264
sS'e\xaf'
p530
F23.729280514057059
sS'e\xab'
p531
F23.729280514057059
sS'e\xbe'
p532
F23.729280514057059
sS'e\xb8'
p533
F23.729280514057059
sS'e\x83'
p534
F23.729280514057059
sS'e\x9f'
p535
F23.729280514057059
sS'e\x92'
p536
F23.729280514057059
sS'em'
p537
F7.84938620728974
sS'el'
p538
F10.593410937408539
sS'eo'
p539
F12.914698048150784
sS'en'
p540
F7.2414875745472536
sS'ei'
p541
F11.252281227923998
sS'eh'
p542
F9.8565094573229075
sS'ek'
p543
F6.8398597342614211
sS'ej'
p544
F8.736651916280886
sS'ee'
p545
F12.384429830114067
sS'ed'
p546
F8.4670021126932884
sS'eg'
p547
F12.277554245982554
sS'ef'
p548
F9.5934910804544646
sS'ea'
p549
F11.7996522310325
sS'ec'
p550
F12.08497355251148
sS'eb'
p551
F9.4928925379123559
sS'e~'
p552
F23.729280514057059
sS'ey'
p553
F23.729280514057059
sS'ez'
p554
F9.202720145069808
sS'eu'
p555
F16.078228822878131
sS'et'
p556
F7.1800222755987289
sS'ev'
p557
F8.6845022053463143
sS'ep'
p558
F9.8758734825518051
sS'es'
p559
F8.3172069105490678
sS'e@'
p560
F23.729280514057059
sS'e_'
p561
F23.729280514057059
sS'\xaf:'
p562
F13.084522921540803
sS'e-'
p563
F23.729280514057059
sS'e/'
p564
F23.729280514057059
sS'\xc9o'
p565
F23.729280514057059
sS'e '
p566
F14.498059333345875
sS'e#'
p567
F6.6005913623997623
sS'e?'
p568
F23.729280514057059
sS'e;'
p569
F23.729280514057059
sS'e:'
p570
F11.252281227923998
sS'e4'
p571
F23.729280514057059
sS'e3'
p572
F23.729280514057059
sS'j\xc3'
p573
F13.084522921540803
sS'\xb8\xaf'
p574
F23.729280514057059
sS'#-'
p575
F23.729280514057059
sS'j4'
p576
F23.729280514057059
sS'# '
p577
F17.071069031305264
sS'\xab#'
p578
F7.9280521230279337
sS'\x9fz'
p579
F23.729280514057059
sS'j-'
p580
F23.729280514057059
sS'\x9fy'
p581
F17.071069031305264
sS'j#'
p582
F9.7454852688967772
sS'\x9fu'
p583
F16.078228822878131
sS'#\xab'
p584
F23.729280514057059
sS'j\xbe'
p585
F23.729280514057059
sS'#\xaf'
p586
F23.729280514057059
sS'j\xaf'
p587
F23.729280514057059
sS'#\xbe'
p588
F23.729280514057059
sS'j\xab'
p589
F23.729280514057059
sS'\xc9;'
p590
F23.729280514057059
sS'\xc9:'
p591
F23.729280514057059
sS'\xc9?'
p592
F23.729280514057059
sS'#\x83'
p593
F23.729280514057059
sS'\xc93'
p594
F23.729280514057059
sS'\xc94'
p595
F23.729280514057059
sS'j\x92'
p596
F23.729280514057059
sS'\xc9-'
p597
F23.729280514057059
sS'\xc9/'
p598
F23.729280514057059
sS'#\x92'
p599
F23.729280514057059
sS'\xc9#'
p600
F23.729280514057059
sS'j\x83'
p601
F23.729280514057059
sS'\xc9_'
p602
F23.729280514057059
sS'\xc9@'
p603
F23.729280514057059
sS'\xc9y'
p604
F23.729280514057059
sS'#\xca'
p605
F23.729280514057059
sS'#\xc9'
p606
F23.729280514057059
sS'\xc9z'
p607
F23.729280514057059
sS'\xc9~'
p608
F23.729280514057059
sS'#\xc3'
p609
F23.729280514057059
sS'\xc9p'
p610
F23.729280514057059
sS'\xc9s'
p611
F23.729280514057059
sS'\xc9u'
p612
F23.729280514057059
sS'\xc9t'
p613
F23.729280514057059
sS'\xc9v'
p614
F23.729280514057059
sS'\xc9i'
p615
F23.729280514057059
sS'\xc9h'
p616
F23.729280514057059
sS'\xc9k'
p617
F23.729280514057059
sS'\xc9j'
p618
F23.729280514057059
sS'\xc9m'
p619
F23.729280514057059
sS'j\xc9'
p620
F8.8046071659894523
sS'j\xca'
p621
F15.08182208760214
sS'\xc9n'
p622
F23.729280514057059
sS'\xc9a'
p623
F23.729280514057059
sS'\xc9c'
p624
F23.729280514057059
sS'\xc9b'
p625
F23.729280514057059
sS'\xc9e'
p626
F23.729280514057059
sS'\xc9d'
p627
F23.729280514057059
sS'\xc9g'
p628
F23.729280514057059
sS'\xc9f'
p629
F23.729280514057059
sS'j?'
p630
F23.729280514057059
sS'#/'
p631
F23.729280514057059
sS'\xc9\x9f'
p632
F11.441279624349486
sS'j;'
p633
F23.729280514057059
sS'##'
p634
F16.078228822878131
sS'\xc9\x92'
p635
F23.729280514057059
sS'#i'
p636
F23.729280514057059
sS'j3'
p637
F23.729280514057059
sS'#;'
p638
F23.729280514057059
sS'#:'
p639
F23.729280514057059
sS'j/'
p640
F23.729280514057059
sS'#?'
p641
F23.729280514057059
sS'#3'
p642
F23.729280514057059
sS'\xc9\x83'
p643
F23.729280514057059
sS'j '
p644
F17.071069031305264
sS'#4'
p645
F23.729280514057059
sS'\xc9\xb8'
p646
F23.729280514057059
sS'#m'
p647
F23.729280514057059
sS'\xc9\xbe'
p648
F4.37784733753975
sS'jt'
p649
F12.178052910458772
sS'\xc9\xab'
p650
F4.7166423365161396
sS'\xc9\xaf'
p651
F5.1484147183645694
sS'ju'
p652
F9.7454852688967772
sS'jv'
p653
F13.383875267339263
sS'#k'
p654
F23.729280514057059
sS'#j'
p655
F23.729280514057059
sS'j~'
p656
F23.729280514057059
sS'#h'
p657
F23.729280514057059
sS'#o'
p658
F23.729280514057059
sS'jy'
p659
F10.371041413630927
sS'jz'
p660
F14.276009880046438
sS'#l'
p661
F23.729280514057059
sS'#c'
p662
F23.729280514057059
sS'#b'
p663
F23.729280514057059
sS'#a'
p664
F23.729280514057059
sS'jp'
p665
F14.498059333345875
sS'#f'
p666
F23.729280514057059
sS'#e'
p667
F23.729280514057059
sS'#d'
p668
F23.729280514057059
sS'\xc9\xc9'
p669
F23.729280514057059
sS'jm'
p670
F11.441279624349486
sS'#y'
p671
F23.729280514057059
sS'\xc9\xca'
p672
F23.729280514057059
sS'jh'
p673
F13.084522921540803
sS'#~'
p674
F23.729280514057059
sS'jj'
p675
F11.441279624349486
sS'jk'
p676
F12.384429830114067
sS'jd'
p677
F11.130995339910456
sS'je'
p678
F8.205810444526751
sS'jf'
p679
F14.08362208164835
sS'#p'
p680
F23.729280514057059
sS'#v'
p681
F23.729280514057059
sS'jb'
p682
F12.836737697408507
sS'jc'
p683
F23.729280514057059
sS'jl'
p684
F13.762054255221067
sS'j_'
p685
F23.729280514057059
sS'#z'
p686
F23.729280514057059
sS'#@'
p687
F23.729280514057059
sS'jn'
p688
F11.277811801109701
sS'jo'
p689
F9.2780049976337118
sS'#_'
p690
F23.729280514057059
sS'j@'
p691
F23.729280514057059
sS'ji'
p692
F9.9254521032662293
sS'#s'
p693
F23.729280514057059
sS'\xc9\xc3'
p694
F23.729280514057059
sS'jg'
p695
F12.330002589548092
sS'ja'
p696
F7.4165216165986525
sS'#u'
p697
F23.729280514057059
sS'#t'
p698
F23.729280514057059
sS'\xb8\xca'
p699
F13.62468176049269
sS'ya'
p700
F14.276009880046438
sS'o\x83'
p701
F23.729280514057059
sS'o\x9f'
p702
F23.729280514057059
sS'yp'
p703
F11.019119822274146
sS'o\x92'
p704
F23.729280514057059
sS'j:'
p705
F23.729280514057059
sS'/\xca'
p706
F23.729280514057059
sS'o\xaf'
p707
F23.729280514057059
sS'o\xab'
p708
F23.729280514057059
sS'/\xc9'
p709
F23.729280514057059
sS';\xc3'
p710
F23.729280514057059
sS'o\xbe'
p711
F23.729280514057059
sS'o\xb8'
p712
F23.729280514057059
sS';\xca'
p713
F23.729280514057059
sS';\xc9'
p714
F23.729280514057059
sS'o\xca'
p715
F11.085198920791385
sS'o\xc9'
p716
F7.8327352412875673
sS'/\xc3'
p717
F23.729280514057059
sS';\xb8'
p718
F23.729280514057059
sS'o\xc3'
p719
F23.729280514057059
sS';\xbe'
p720
F23.729280514057059
sS';\xab'
p721
F23.729280514057059
sS';\xaf'
p722
F23.729280514057059
sS';\x92'
p723
F23.729280514057059
sS';\x9f'
p724
F23.729280514057059
sS';\x83'
p725
F23.729280514057059
sS';s'
p726
F23.729280514057059
sS';p'
p727
F23.729280514057059
sS';v'
p728
F23.729280514057059
sS';u'
p729
F23.729280514057059
sS';t'
p730
F17.071069031305264
sS';z'
p731
F23.729280514057059
sS';y'
p732
F23.729280514057059
sS';~'
p733
F23.729280514057059
sS';c'
p734
F23.729280514057059
sS';b'
p735
F23.729280514057059
sS';a'
p736
F23.729280514057059
sS';g'
p737
F23.729280514057059
sS';f'
p738
F23.729280514057059
sS';e'
p739
F23.729280514057059
sS';d'
p740
F23.729280514057059
sS';k'
p741
F23.729280514057059
sS';j'
p742
F23.729280514057059
sS';i'
p743
F23.729280514057059
sS';h'
p744
F23.729280514057059
sS';o'
p745
F23.729280514057059
sS';n'
p746
F23.729280514057059
sS';m'
p747
F23.729280514057059
sS';l'
p748
F23.729280514057059
sS'o/'
p749
F23.729280514057059
sS'o-'
p750
F23.729280514057059
sS';_'
p751
F23.729280514057059
sS'o '
p752
F23.729280514057059
sS'o?'
p753
F23.729280514057059
sS';@'
p754
F23.729280514057059
sS'o;'
p755
F23.729280514057059
sS'o:'
p756
F11.500161293398467
sS'o4'
p757
F23.729280514057059
sS'o3'
p758
F23.729280514057059
sS';3'
p759
F23.729280514057059
sS';4'
p760
F23.729280514057059
sS';;'
p761
F23.729280514057059
sS';:'
p762
F23.729280514057059
sS';?'
p763
F23.729280514057059
sS'o@'
p764
F23.729280514057059
sS';#'
p765
F23.729280514057059
sS'; '
p766
F23.729280514057059
sS';/'
p767
F23.729280514057059
sS';-'
p768
F23.729280514057059
sS'oo'
p769
F16.078228822878131
sS'on'
p770
F8.2844920773022235
sS'om'
p771
F10.190485331190622
sS'ol'
p772
F12.178052910458772
sS'ok'
p773
F9.72778435313632
sS'oj'
p774
F10.343822512869091
sS'oi'
p775
F14.276009880046438
sS'oh'
p776
F13.499260078351424
sS'og'
p777
F12.384429830114067
sS'of'
p778
F11.875581093756841
sS'oe'
p779
F15.495660837297359
sS'od'
p780
F10.727696391971712
sS'oc'
p781
F17.071069031305264
sS'ob'
p782
F11.593250664671508
sS'oa'
p783
F12.226945933859062
sS'o~'
p784
F23.729280514057059
sS'oz'
p785
F10.23980882704938
sS'oy'
p786
F23.729280514057059
sS'ov'
p787
F11.441279624349486
sS'ou'
p788
F11.727520485729842
sS'ot'
p789
F9.9254521032662293
sS'os'
p790
F10.357367772832955
sS'op'
p791
F10.178413509096156
sS'a\xc3'
p792
F16.078228822878131
sS'a\xc9'
p793
F5.7839224134036566
sS'a\xca'
p794
F8.398888780654147
sS'a\xab'
p795
F23.729280514057059
sS'a\xaf'
p796
F23.729280514057059
sS'a\xb8'
p797
F23.729280514057059
sS'a\xbe'
p798
F23.729280514057059
sS'a\x83'
p799
F23.729280514057059
sS'a\x92'
p800
F23.729280514057059
sS'a\x9f'
p801
F23.729280514057059
sS'aa'
p802
F10.441423872216516
sS'ac'
p803
F14.08362208164835
sS'ab'
p804
F8.8808042759453691
sS'ae'
p805
F14.498059333345875
sS'ad'
p806
F8.3106043268142198
sS'ag'
p807
F11.625664857662512
sS'af'
p808
F9.3849152474700013
sS'ai'
p809
F10.976690796416069
sS'ah'
p810
F8.367713633332162
sS'ak'
p811
F6.1943925370225568
sS'aj'
p812
F8.0630287673852461
sS'am'
p813
F7.333863528688914
sS'al'
p814
F9.1784736176327506
sS'ao'
p815
F13.277039273626242
sS'an'
p816
F6.4938926278064413
sS'ap'
p817
F8.4236106048503441
sS'as'
p818
F7.8710809158907082
sS'au'
p819
F13.383875267339263
sS'at'
p820
F7.0396510140045114
sS'av'
p821
F8.8517567182509929
sS'ay'
p822
F16.078228822878131
sS'az'
p823
F8.554003872535068
sS'a~'
p824
F23.729280514057059
sS'a@'
p825
F23.729280514057059
sS'a_'
p826
F23.729280514057059
sS'a '
p827
F16.078228822878131
sS'a#'
p828
F6.5511117136404033
sS'c '
p829
F23.729280514057059
sS'a-'
p830
F23.729280514057059
sS'a/'
p831
F23.729280514057059
sS'a3'
p832
F23.729280514057059
sS'a4'
p833
F23.729280514057059
sS'a;'
p834
F17.071069031305264
sS'a:'
p835
F6.1102857004883804
sS'a?'
p836
F23.729280514057059
sS'/\x9f'
p837
F23.729280514057059
sS'\x83a'
p838
F7.8955750619316118
sS't_'
p839
F23.729280514057059
sS'-@'
p840
F23.729280514057059
sS' c'
p841
F23.729280514057059
sS'@\xca'
p842
F23.729280514057059
sS'@\xc9'
p843
F23.729280514057059
sS'c3'
p844
F23.729280514057059
sS' a'
p845
F15.495660837297359
sS' f'
p846
F16.078228822878131
sS'-_'
p847
F23.729280514057059
sS't@'
p848
F17.071069031305264
sS'-e'
p849
F23.729280514057059
sS'-d'
p850
F23.729280514057059
sS'-g'
p851
F23.729280514057059
sS'-f'
p852
F23.729280514057059
sS'\x9f;'
p853
F23.729280514057059
sS'\x9f:'
p854
F23.729280514057059
sS'-c'
p855
F23.729280514057059
sS'-b'
p856
F23.729280514057059
sS'-m'
p857
F23.729280514057059
sS'-l'
p858
F23.729280514057059
sS'-o'
p859
F23.729280514057059
sS'\x9f4'
p860
F23.729280514057059
sS'\x9f3'
p861
F23.729280514057059
sS'-h'
p862
F23.729280514057059
sS'-k'
p863
F23.729280514057059
sS'-j'
p864
F23.729280514057059
sS'\x9f/'
p865
F23.729280514057059
sS'to'
p866
F9.2149979523820527
sS'\x9f-'
p867
F23.729280514057059
sS'tm'
p868
F9.1369986851738787
sS'tj'
p869
F13.62468176049269
sS'-p'
p870
F23.729280514057059
sS'-s'
p871
F23.729280514057059
sS'ti'
p872
F7.8280129083338945
sS'tf'
p873
F13.499260078351424
sS'tg'
p874
F14.08362208164835
sS'td'
p875
F14.760613720861851
sS'-~'
p876
F23.729280514057059
sS'-y'
p877
F23.729280514057059
sS'tc'
p878
F15.495660837297359
sS'-z'
p879
F23.729280514057059
sS'\x9f_'
p880
F23.729280514057059
sS'@\x83'
p881
F23.729280514057059
sS'gz'
p882
F15.495660837297359
sS'@\x92'
p883
F23.729280514057059
sS'gy'
p884
F9.6844595239552227
sS'@\x9f'
p885
F23.729280514057059
sS'\x9f@'
p886
F23.729280514057059
sS't?'
p887
F23.729280514057059
sS'y\x92'
p888
F23.729280514057059
sS't:'
p889
F23.729280514057059
sS't;'
p890
F23.729280514057059
sS'-#'
p891
F23.729280514057059
sS'gf'
p892
F23.729280514057059
sS'--'
p893
F23.729280514057059
sS'@\xab'
p894
F23.729280514057059
sS'-/'
p895
F23.729280514057059
sS'\x9ft'
p896
F23.729280514057059
sS'\x9fs'
p897
F17.071069031305264
sS'@\xaf'
p898
F23.729280514057059
sS'\x9fp'
p899
F23.729280514057059
sS'\x9fo'
p900
F23.729280514057059
sS'-4'
p901
F23.729280514057059
sS'\x9fm'
p902
F23.729280514057059
sS't-'
p903
F23.729280514057059
sS'\x9fk'
p904
F23.729280514057059
sS'\x9fj'
p905
F23.729280514057059
sS'-3'
p906
F23.729280514057059
sS'\x9fh'
p907
F23.729280514057059
sS'\x9fg'
p908
F23.729280514057059
sS'\x9ff'
p909
F23.729280514057059
sS'-?'
p910
F23.729280514057059
sS'\x9fd'
p911
F17.071069031305264
sS'@\xbe'
p912
F23.729280514057059
sS'\x9fb'
p913
F23.729280514057059
sS'-;'
p914
F23.729280514057059
sS'-:'
p915
F23.729280514057059
sS'\x9f\x9f'
p916
F23.729280514057059
sS'@@'
p917
F23.729280514057059
sS'ga'
p918
F8.9458218133919889
sS'-\xc3'
p919
F23.729280514057059
sS'-\xc9'
p920
F23.729280514057059
sS'\x9f\x92'
p921
F23.729280514057059
sS'-\xca'
p922
F23.729280514057059
sS' z'
p923
F23.729280514057059
sS't\xca'
p924
F6.5965699382284697
sS't\xc9'
p925
F7.7861934061555163
sS'\x9f\x83'
p926
F23.729280514057059
sS'@_'
p927
F23.729280514057059
sS'@b'
p928
F23.729280514057059
sS'@c'
p929
F23.729280514057059
sS'@a'
p930
F23.729280514057059
sS'@f'
p931
F23.729280514057059
sS'@g'
p932
F23.729280514057059
sS'@d'
p933
F23.729280514057059
sS'@e'
p934
F23.729280514057059
sS'@j'
p935
F23.729280514057059
sS'@k'
p936
F23.729280514057059
sS'@h'
p937
F23.729280514057059
sS'@i'
p938
F23.729280514057059
sS'@n'
p939
F23.729280514057059
sS'@o'
p940
F23.729280514057059
sS'@l'
p941
F23.729280514057059
sS'@m'
p942
F23.729280514057059
sS'\x9f\xaf'
p943
F23.729280514057059
sS'@s'
p944
F23.729280514057059
sS'@p'
p945
F23.729280514057059
sS'\x9f\xab'
p946
F23.729280514057059
sS'@t'
p947
F23.729280514057059
sS'@u'
p948
F23.729280514057059
sS'@z'
p949
F23.729280514057059
sS'@y'
p950
F23.729280514057059
sS'@~'
p951
F23.729280514057059
sS't\x9f'
p952
F23.729280514057059
sS'-\x83'
p953
F23.729280514057059
sS't\x92'
p954
F23.729280514057059
sS'\x9f\xca'
p955
F23.729280514057059
sS'\x9f\xc9'
p956
F13.913897218243521
sS'-\x92'
p957
F23.729280514057059
sS'-\x9f'
p958
F23.729280514057059
sS'\x9f\xc3'
p959
F23.729280514057059
sS't\x83'
p960
F23.729280514057059
sS't\xbe'
p961
F23.729280514057059
sS'@#'
p962
F17.071069031305264
sS'@ '
p963
F23.729280514057059
sS't\xb8'
p964
F23.729280514057059
sS'-\xaf'
p965
F23.729280514057059
sS'@/'
p966
F23.729280514057059
sS'-\xab'
p967
F23.729280514057059
sS'@-'
p968
F23.729280514057059
sS't\xaf'
p969
F23.729280514057059
sS't\xab'
p970
F23.729280514057059
sS'@4'
p971
F23.729280514057059
sS'@:'
p972
F23.729280514057059
sS'@;'
p973
F23.729280514057059
sS'-\xbe'
p974
F23.729280514057059
sS'@?'
p975
F23.729280514057059
sS'f\xb8'
p976
F23.729280514057059
sS'f\xbe'
p977
F23.729280514057059
sS'f\xab'
p978
F23.729280514057059
sS'f\xaf'
p979
F23.729280514057059
sS'f\x92'
p980
F23.729280514057059
sS'f\x9f'
p981
F23.729280514057059
sS'f\x83'
p982
F23.729280514057059
sS'vo'
p983
F12.836737697408507
sS'/_'
p984
F23.729280514057059
sS'f\xc3'
p985
F14.276009880046438
sS'f\xc9'
p986
F9.7454852688967772
sS'f\xca'
p987
F16.078228822878131
sS'f3'
p988
F23.729280514057059
sS'f4'
p989
F23.729280514057059
sS'f:'
p990
F23.729280514057059
sS'f;'
p991
F23.729280514057059
sS'f?'
p992
F23.729280514057059
sS'f '
p993
F23.729280514057059
sS'f#'
p994
F9.1905459448091378
sS'3\x9f'
p995
F23.729280514057059
sS'f-'
p996
F23.729280514057059
sS'f/'
p997
F23.729280514057059
sS'fp'
p998
F23.729280514057059
sS'/o'
p999
F23.729280514057059
sS'fs'
p1000
F12.997113088393673
sS'ft'
p1001
F11.085198920791385
sS'fu'
p1002
F11.7996522310325
sS'fv'
p1003
F23.729280514057059
sS'/n'
p1004
F23.729280514057059
sS'fy'
p1005
F11.91509862986678
sS'fz'
p1006
F16.078228822878131
sS'/m'
p1007
F23.729280514057059
sS'f~'
p1008
F23.729280514057059
sS' /'
p1009
F23.729280514057059
sS'fa'
p1010
F9.1195823329727386
sS'fb'
p1011
F17.071069031305264
sS'fc'
p1012
F15.495660837297359
sS'fd'
p1013
F14.498059333345875
sS'fe'
p1014
F9.1195823329727386
sS'ff'
p1015
F12.692420067384013
sS'fg'
p1016
F16.078228822878131
sS'fh'
p1017
F15.08182208760214
sS'fi'
p1018
F9.1665014727418743
sS'fj'
p1019
F14.08362208164835
sS'fk'
p1020
F13.499260078351424
sS'fl'
p1021
F14.08362208164835
sS'fm'
p1022
F17.071069031305264
sS'fn'
p1023
F14.760613720861851
sS'fo'
p1024
F11.107915419742197
sS'f_'
p1025
F23.729280514057059
sS'f@'
p1026
F23.729280514057059
sS'/g'
p1027
F23.729280514057059
sS'/f'
p1028
F23.729280514057059
sS'g#'
p1029
F12.178052910458772
sS'\x83\xca'
p1030
F14.760613720861851
sS'\x83\xc9'
p1031
F8.3106043268142198
sS'y-'
p1032
F23.729280514057059
sS'y/'
p1033
F23.729280514057059
sS'\x83\xc3'
p1034
F11.91509862986678
sS'y '
p1035
F23.729280514057059
sS'y#'
p1036
F9.8758734825518051
sS'3\x83'
p1037
F23.729280514057059
sS'y;'
p1038
F23.729280514057059
sS'y:'
p1039
F12.914698048150784
sS'y?'
p1040
F23.729280514057059
sS'y3'
p1041
F23.729280514057059
sS'y4'
p1042
F23.729280514057059
sS'yi'
p1043
F17.071069031305264
sS'yh'
p1044
F12.330002589548092
sS'yk'
p1045
F9.8469240454028437
sS'yj'
p1046
F12.384429830114067
sS'ym'
p1047
F9.675948526226378
sS'yl'
p1048
F13.499260078351424
sS'yo'
p1049
F16.078228822878131
sS'yn'
p1050
F9.4414960015588747
sS'\x83\x83'
p1051
F23.729280514057059
sS'yc'
p1052
F13.913897218243521
sS'yb'
p1053
F12.08497355251148
sS'ye'
p1054
F12.440991171876091
sS'yd'
p1055
F10.398783736418372
sS'yg'
p1056
F17.071069031305264
sS'yf'
p1057
F11.252281227923998
sS'yy'
p1058
F14.276009880046438
sS'yz'
p1059
F9.8092068449110421
sS'\x83\x9f'
p1060
F23.729280514057059
sS'y~'
p1061
F23.729280514057059
sS'\x83\x92'
p1062
F23.729280514057059
sS'ys'
p1063
F9.5384527169900171
sS'yu'
p1064
F23.729280514057059
sS'yt'
p1065
F9.0910143122566733
sS'yv'
p1066
F11.692763443570541
sS'\x83\xab'
p1067
F23.729280514057059
sS'\x83\xaf'
p1068
F23.729280514057059
sS'y@'
p1069
F23.729280514057059
sS'\x83\xb8'
p1070
F23.729280514057059
sS'\x83\xbe'
p1071
F23.729280514057059
sS'y_'
p1072
F23.729280514057059
sS'/p'
p1073
F23.729280514057059
sS'c\xab'
p1074
F23.729280514057059
sS'y\xab'
p1075
F23.729280514057059
sS'y\xaf'
p1076
F23.729280514057059
sS'\x83@'
p1077
F23.729280514057059
sS'y\xb8'
p1078
F23.729280514057059
sS'\x83_'
p1079
F23.729280514057059
sS'y\xbe'
p1080
F23.729280514057059
sS'\x83k'
p1081
F10.593410937408539
sS'\x83j'
p1082
F14.276009880046438
sS'\x83i'
p1083
F8.557908221325123
sS'\x83h'
p1084
F12.56123524583297
sS'\x83o'
p1085
F11.202536771057373
sS'\x83n'
p1086
F13.499260078351424
sS'\x83m'
p1087
F9.2974564860491959
sS'\x83l'
p1088
F23.729280514057059
sS'\x83c'
p1089
F17.071069031305264
sS'\x83b'
p1090
F12.692420067384013
sS'y\x83'
p1091
F23.729280514057059
sS'\x83g'
p1092
F12.997113088393673
sS'\x83f'
p1093
F15.08182208760214
sS'\x83e'
p1094
F8.2620252370149672
sS'\x83d'
p1095
F14.498059333345875
sS'\x83z'
p1096
F23.729280514057059
sS'\x83y'
p1097
F10.935474022601289
sS'\x83~'
p1098
F23.729280514057059
sS'y\x9f'
p1099
F23.729280514057059
sS'\x83s'
p1100
F13.62468176049269
sS'\x83p'
p1101
F15.08182208760214
sS'\x83v'
p1102
F13.762054255221067
sS'\x83u'
p1103
F10.47056727389784
sS'\x83t'
p1104
F10.330403245428721
sS'y\xc9'
p1105
F7.9690543687738069
sS'y\xca'
p1106
F10.455921984790361
sS'\x83/'
p1107
F23.729280514057059
sS'\x83-'
p1108
F23.729280514057059
sS'\x83#'
p1109
F7.8233059824415907
sS'y\xc3'
p1110
F23.729280514057059
sS'\x83 '
p1111
F16.078228822878131
sS'\x83;'
p1112
F23.729280514057059
sS'\x83:'
p1113
F23.729280514057059
sS'c\xb8'
p1114
F23.729280514057059
sS'\x83?'
p1115
F23.729280514057059
sS'\x833'
p1116
F23.729280514057059
sS'\x834'
p1117
F23.729280514057059
sS'k\x83'
p1118
F23.729280514057059
sS'k\x92'
p1119
F23.729280514057059
sS'zh'
p1120
F14.760613720861851
sS'k\x9f'
p1121
F23.729280514057059
sS'k\xab'
p1122
F23.729280514057059
sS'k\xaf'
p1123
F23.729280514057059
sS'~\xc9'
p1124
F23.729280514057059
sS'~\xca'
p1125
F23.729280514057059
sS'k\xb8'
p1126
F23.729280514057059
sS'k\xbe'
p1127
F23.729280514057059
sS'k\xc3'
p1128
F10.427070007508258
sS'~\xbe'
p1129
F23.729280514057059
sS'k\xca'
p1130
F13.762054255221067
sS'k\xc9'
p1131
F7.5618427665236903
sS'~\xab'
p1132
F23.729280514057059
sS'~\xaf'
p1133
F23.729280514057059
sS'~\xc3'
p1134
F23.729280514057059
sS'~\x9f'
p1135
F23.729280514057059
sS'~\x92'
p1136
F23.729280514057059
sS'~\x83'
p1137
F23.729280514057059
sS'~\xb8'
p1138
F23.729280514057059
sS'~z'
p1139
F23.729280514057059
sS'zz'
p1140
F12.499860825826643
sS'~~'
p1141
F23.729280514057059
sS'~p'
p1142
F23.729280514057059
sS'~s'
p1143
F23.729280514057059
sS'~t'
p1144
F23.729280514057059
sS'~u'
p1145
F23.729280514057059
sS'~v'
p1146
F23.729280514057059
sS'~h'
p1147
F23.729280514057059
sS'~i'
p1148
F23.729280514057059
sS'~j'
p1149
F23.729280514057059
sS'~k'
p1150
F23.729280514057059
sS'~l'
p1151
F23.729280514057059
sS'~m'
p1152
F23.729280514057059
sS'~n'
p1153
F23.729280514057059
sS'~o'
p1154
F23.729280514057059
sS'~a'
p1155
F23.729280514057059
sS'~b'
p1156
F23.729280514057059
sS'~c'
p1157
F23.729280514057059
sS'~d'
p1158
F23.729280514057059
sS'~e'
p1159
F23.729280514057059
sS'~f'
p1160
F23.729280514057059
sS'~g'
p1161
F23.729280514057059
sS'k#'
p1162
F5.5467455218127215
sS'k '
p1163
F16.078228822878131
sS'~_'
p1164
F23.729280514057059
sS'k/'
p1165
F23.729280514057059
sS'k-'
p1166
F23.729280514057059
sS'k3'
p1167
F23.729280514057059
sS'k4'
p1168
F23.729280514057059
sS'~@'
p1169
F23.729280514057059
sS'k:'
p1170
F23.729280514057059
sS'k?'
p1171
F23.729280514057059
sS'~:'
p1172
F23.729280514057059
sS'k@'
p1173
F23.729280514057059
sS'~?'
p1174
F23.729280514057059
sS'~3'
p1175
F23.729280514057059
sS'~4'
p1176
F23.729280514057059
sS'~-'
p1177
F23.729280514057059
sS'~/'
p1178
F23.729280514057059
sS'~ '
p1179
F12.836737697408507
sS'~#'
p1180
F17.071069031305264
sS'k_'
p1181
F23.729280514057059
sS'kc'
p1182
F23.729280514057059
sS'kb'
p1183
F12.040593090834525
sS'ka'
p1184
F6.7147260210280431
sS'kg'
p1185
F14.08362208164835
sS'kf'
p1186
F14.760613720861851
sS'ke'
p1187
F8.1282932549428448
sS'kd'
p1188
F12.277554245982554
sS'kk'
p1189
F10.71021108472595
sS'kj'
p1190
F12.692420067384013
sS'ki'
p1191
F8.427177131699203
sS'kh'
p1192
F14.498059333345875
sS'ko'
p1193
F8.5815588431689704
sS'kn'
p1194
F13.499260078351424
sS'km'
p1195
F10.89540214947969
sS'kl'
p1196
F13.62468176049269
sS'ks'
p1197
F9.9560382613717593
sS' \xca'
p1198
F17.071069031305264
sS'kp'
p1199
F15.08182208760214
sS'kv'
p1200
F13.762054255221067
sS'ku'
p1201
F8.6759909565615398
sS'kt'
p1202
F9.3574358196712062
sS'kz'
p1203
F14.498059333345875
sS'ky'
p1204
F9.434300859016135
sS'k~'
p1205
F23.729280514057059
sS' \xc9'
p1206
F23.729280514057059
sS'4n'
p1207
F23.729280514057059
sS'3h'
p1208
F23.729280514057059
sS'g\xc3'
p1209
F10.15456873787377
sS'3f'
p1210
F23.729280514057059
sS'g\xc9'
p1211
F9.8856538402642116
sS' \xab'
p1212
F23.729280514057059
sS'z#'
p1213
F8.0658057985999392
sS'~y'
p1214
F23.729280514057059
sS'p_'
p1215
F23.729280514057059
sS'g\xaf'
p1216
F23.729280514057059
sS'p@'
p1217
F23.729280514057059
sS'\xca\xc9'
p1218
F23.729280514057059
sS'\xca\xca'
p1219
F23.729280514057059
sS'\xca\xc3'
p1220
F23.729280514057059
sS'ps'
p1221
F12.440991171876091
sS'pp'
p1222
F13.62468176049269
sS'pv'
p1223
F23.729280514057059
sS'pt'
p1224
F10.875776013035781
sS'pu'
p1225
F10.799837156372863
sS'pz'
p1226
F16.078228822878131
sS' \xbe'
p1227
F23.729280514057059
sS'py'
p1228
F12.226945933859062
sS'p~'
p1229
F23.729280514057059
sS'pb'
p1230
F15.08182208760214
sS'pc'
p1231
F23.729280514057059
sS'pa'
p1232
F8.4200528731741535
sS'pf'
p1233
F15.495660837297359
sS'pg'
p1234
F16.078228822878131
sS'pd'
p1235
F14.276009880046438
sS'pe'
p1236
F9.3238066097272529
sS'pj'
p1237
F13.762054255221067
sS'pk'
p1238
F12.762775062151318
sS'ph'
p1239
F13.17757225243637
sS'pi'
p1240
F9.8856538402642116
sS'pn'
p1241
F14.760613720861851
sS'po'
p1242
F10.15456873787377
sS'pl'
p1243
F13.913897218243521
sS'pm'
p1244
F12.625337084165503
sS'\xca\x9f'
p1245
F23.729280514057059
sS'3:'
p1246
F23.729280514057059
sS'\xca\x92'
p1247
F6.369453756793229
sS'\xca\x83'
p1248
F5.4129945622960385
sS'p3'
p1249
F23.729280514057059
sS'\xca\xbe'
p1250
F23.729280514057059
sS'\xca\xb8'
p1251
F23.729280514057059
sS'p4'
p1252
F23.729280514057059
sS'p:'
p1253
F23.729280514057059
sS'p;'
p1254
F23.729280514057059
sS'p?'
p1255
F23.729280514057059
sS'p#'
p1256
F8.2181146920759982
sS'p '
p1257
F23.729280514057059
sS'\xca\xaf'
p1258
F23.729280514057059
sS'\xca\xab'
p1259
F23.729280514057059
sS'p/'
p1260
F23.729280514057059
sS'p-'
p1261
F23.729280514057059
sS'\xca_'
p1262
F23.729280514057059
sS'p\xc3'
p1263
F14.276009880046438
sS'p\xca'
p1264
F14.276009880046438
sS'p\xc9'
p1265
F9.1546278610850926
sS'\xca@'
p1266
F23.729280514057059
sS'\xca~'
p1267
F23.729280514057059
sS'\xcay'
p1268
F23.729280514057059
sS'\xcaz'
p1269
F23.729280514057059
sS'\xcat'
p1270
F23.729280514057059
sS'\xcau'
p1271
F23.729280514057059
sS'\xcav'
p1272
F23.729280514057059
sS'\xcap'
p1273
F23.729280514057059
sS'\xcas'
p1274
F23.729280514057059
sS'\xcal'
p1275
F23.729280514057059
sS'\xcam'
p1276
F23.729280514057059
sS'\xcan'
p1277
F23.729280514057059
sS'\xcao'
p1278
F23.729280514057059
sS'\xcah'
p1279
F23.729280514057059
sS'\xcai'
p1280
F23.729280514057059
sS'\xcaj'
p1281
F23.729280514057059
sS'\xcak'
p1282
F23.729280514057059
sS'\xcad'
p1283
F23.729280514057059
sS'\xcae'
p1284
F23.729280514057059
sS'\xcaf'
p1285
F23.729280514057059
sS'\xcag'
p1286
F23.729280514057059
sS'\xcaa'
p1287
F23.729280514057059
sS'\xcab'
p1288
F23.729280514057059
sS'\xcac'
p1289
F23.729280514057059
sS'p\x92'
p1290
F23.729280514057059
sS'p\x9f'
p1291
F23.729280514057059
sS'p\x83'
p1292
F23.729280514057059
sS'\xca?'
p1293
F23.729280514057059
sS'\xca:'
p1294
F23.729280514057059
sS'\xca;'
p1295
F23.729280514057059
sS'\xca4'
p1296
F23.729280514057059
sS'p\xb8'
p1297
F23.729280514057059
sS'p\xbe'
p1298
F23.729280514057059
sS'\xca3'
p1299
F23.729280514057059
sS'\xca-'
p1300
F23.729280514057059
sS'\xca/'
p1301
F23.729280514057059
sS'p\xab'
p1302
F23.729280514057059
sS'\xca '
p1303
F23.729280514057059
sS'p\xaf'
p1304
F23.729280514057059
sS'\xca#'
p1305
F23.729280514057059
sS'b\xaf'
p1306
F23.729280514057059
sS'b\xab'
p1307
F23.729280514057059
sS'b\xbe'
p1308
F23.729280514057059
sS'b\xb8'
p1309
F23.729280514057059
sS'b\x83'
p1310
F23.729280514057059
sS'b\x92'
p1311
F23.729280514057059
sS'b\x9f'
p1312
F23.729280514057059
sS'k;'
p1313
F23.729280514057059
sS'b\xc3'
p1314
F12.499860825826643
sS'b\xc9'
p1315
F9.9355756101125721
sS'b\xca'
p1316
F16.078228822878131
sS'#n'
p1317
F23.729280514057059
sS'b '
p1318
F23.729280514057059
sS'b#'
p1319
F12.625337084165503
sS'-a'
p1320
F23.729280514057059
sS'b-'
p1321
F23.729280514057059
sS'b/'
p1322
F23.729280514057059
sS'b4'
p1323
F23.729280514057059
sS'~;'
p1324
F23.729280514057059
sS'b3'
p1325
F23.729280514057059
sS'gp'
p1326
F16.078228822878131
sS'b?'
p1327
F23.729280514057059
sS'b:'
p1328
F23.729280514057059
sS'b;'
p1329
F23.729280514057059
sS'js'
p1330
F13.17757225243637
sS'bd'
p1331
F13.762054255221067
sS'be'
p1332
F8.1546574235993781
sS'bf'
p1333
F23.729280514057059
sS'bg'
p1334
F23.729280514057059
sS'ba'
p1335
F7.4596972193709083
sS'bb'
p1336
F12.56123524583297
sS'bc'
p1337
F23.729280514057059
sS'bl'
p1338
F15.08182208760214
sS'bm'
p1339
F23.729280514057059
sS'bn'
p1340
F15.495660837297359
sS'bo'
p1341
F9.5617839630166994
sS'bh'
p1342
F17.071069031305264
sS'bi'
p1343
F8.2274122369242697
sS'bj'
p1344
F14.498059333345875
sS'bk'
p1345
F17.071069031305264
sS'bt'
p1346
F17.071069031305264
sS'bu'
p1347
F9.2844597309676615
sS'bv'
p1348
F23.729280514057059
sS'bp'
p1349
F23.729280514057059
sS'bs'
p1350
F14.760613720861851
sS'b~'
p1351
F23.729280514057059
sS'by'
p1352
F10.763315903784976
sS'bz'
p1353
F13.762054255221067
sS'b@'
p1354
F23.729280514057059
sS'b_'
p1355
F23.729280514057059
sS'u?'
p1356
F23.729280514057059
sS'u;'
p1357
F23.729280514057059
sS'u:'
p1358
F9.9663794642820029
sS'u4'
p1359
F23.729280514057059
sS'u3'
p1360
F23.729280514057059
sS'u-'
p1361
F23.729280514057059
sS'u/'
p1362
F23.729280514057059
sS'u '
p1363
F23.729280514057059
sS'u#'
p1364
F8.9560897834345425
sS'u_'
p1365
F23.729280514057059
sS'#g'
p1366
F23.729280514057059
sS'u@'
p1367
F23.729280514057059
sS'u~'
p1368
F23.729280514057059
sS'uy'
p1369
F17.071069031305264
sS'uz'
p1370
F10.190485331190622
sS'uu'
p1371
F12.762775062151318
sS'ut'
p1372
F9.0192813029243535
sS'uv'
p1373
F11.412716128660117
sS'up'
p1374
F11.252281227923998
sS'us'
p1375
F9.8565094573229075
sS'um'
p1376
F9.1369986851738787
sS'ul'
p1377
F11.202536771057373
sS'uo'
p1378
F15.08182208760214
sS'un'
p1379
F9.1905459448091378
sS'ui'
p1380
F15.495660837297359
sS'uh'
p1381
F10.343822512869091
sS'uk'
p1382
F9.3711101084880184
sS'uj'
p1383
F10.763315903784976
sS'ue'
p1384
F15.495660837297359
sS'ud'
p1385
F10.692935162316314
sS'ug'
p1386
F13.084522921540803
sS'uf'
p1387
F11.727520485729842
sS'ua'
p1388
F10.727696391971712
sS'uc'
p1389
F23.729280514057059
sS'ub'
p1390
F11.837117204195094
sS'u\x9f'
p1391
F23.729280514057059
sS'u\x92'
p1392
F23.729280514057059
sS'u\x83'
p1393
F23.729280514057059
sS'u\xbe'
p1394
F23.729280514057059
sS'u\xb8'
p1395
F23.729280514057059
sS'u\xaf'
p1396
F23.729280514057059
sS'u\xab'
p1397
F23.729280514057059
sS'u\xc9'
p1398
F7.5540233680188198
sS'u\xca'
p1399
F10.371041413630927
sS'u\xc3'
p1400
F23.729280514057059
sS'ge'
p1401
F9.202720145069808
sS' b'
p1402
F23.729280514057059
sS'gv'
p1403
F23.729280514057059
sS'gu'
p1404
F10.818450432760486
sS'gt'
p1405
F17.071069031305264
sS'gs'
p1406
F23.729280514057059
sS' g'
p1407
F17.071069031305264
sS' d'
p1408
F16.078228822878131
sS' e'
p1409
F23.729280514057059
sS' j'
p1410
F23.729280514057059
sS'g~'
p1411
F23.729280514057059
sS' h'
p1412
F23.729280514057059
sS' i'
p1413
F17.071069031305264
sS' n'
p1414
F17.071069031305264
sS' o'
p1415
F23.729280514057059
sS' l'
p1416
F23.729280514057059
sS' m'
p1417
F15.495660837297359
sS'gg'
p1418
F23.729280514057059
sS'3\xca'
p1419
F23.729280514057059
sS'3\xc9'
p1420
F23.729280514057059
sS'gd'
p1421
F23.729280514057059
sS'gc'
p1422
F23.729280514057059
sS'gb'
p1423
F23.729280514057059
sS' t'
p1424
F15.08182208760214
sS' u'
p1425
F16.078228822878131
sS'3\xc3'
p1426
F23.729280514057059
sS'gn'
p1427
F23.729280514057059
sS'gm'
p1428
F14.498059333345875
sS'gl'
p1429
F23.729280514057059
sS' ~'
p1430
F12.762775062151318
sS'gj'
p1431
F23.729280514057059
sS'gi'
p1432
F9.9663794642820029
sS'gh'
p1433
F23.729280514057059
sS' @'
p1434
F23.729280514057059
sS'z\xc9'
p1435
F9.2651815272156508
sS'z\xca'
p1436
F23.729280514057059
sS'g_'
p1437
F23.729280514057059
sS'z\xc3'
p1438
F14.760613720861851
sS'g@'
p1439
F23.729280514057059
sS' _'
p1440
F23.729280514057059
sS' #'
p1441
F15.495660837297359
sS'  '
p1442
F23.729280514057059
sS'z\xaf'
p1443
F23.729280514057059
sS'g3'
p1444
F23.729280514057059
sS'z\xab'
p1445
F23.729280514057059
sS'g?'
p1446
F23.729280514057059
sS'3\x92'
p1447
F23.729280514057059
sS'g;'
p1448
F23.729280514057059
sS'g:'
p1449
F23.729280514057059
sS' -'
p1450
F23.729280514057059
sS' 3'
p1451
F23.729280514057059
sS'z\xbe'
p1452
F23.729280514057059
sS'z\xb8'
p1453
F23.729280514057059
sS' 4'
p1454
F23.729280514057059
sS'g '
p1455
F23.729280514057059
sS'g/'
p1456
F23.729280514057059
sS' ;'
p1457
F23.729280514057059
sS'g-'
p1458
F23.729280514057059
sS' ?'
p1459
F17.071069031305264
sS'3\xb8'
p1460
F23.729280514057059
sS'3\xbe'
p1461
F23.729280514057059
sS'z\x83'
p1462
F23.729280514057059
sS'3\xab'
p1463
F23.729280514057059
sS'z\x9f'
p1464
F23.729280514057059
sS'3\xaf'
p1465
F23.729280514057059
sS'z\x92'
p1466
F23.729280514057059
sS'zl'
p1467
F17.071069031305264
sS'zm'
p1468
F10.997749337595117
sS'zn'
p1469
F13.913897218243521
sS'zo'
p1470
F11.625664857662512
sS'3_'
p1471
F23.729280514057059
sS'zi'
p1472
F9.1784736176327506
sS'zj'
p1473
F12.997113088393673
sS'zk'
p1474
F12.762775062151318
sS'zd'
p1475
F11.303802326411732
sS'ze'
p1476
F9.1195823329727386
sS'zf'
p1477
F23.729280514057059
sS'zg'
p1478
F11.593250664671508
sS'za'
p1479
F8.5775900501489133
sS'zb'
p1480
F12.277554245982554
sS'zc'
p1481
F15.495660837297359
sS'z~'
p1482
F23.729280514057059
sS'zy'
p1483
F11.178293299535541
sS'go'
p1484
F11.154450498719429
sS'zt'
p1485
F15.08182208760214
sS'zu'
p1486
F11.085198920791385
sS'zv'
p1487
F14.276009880046438
sS'3@'
p1488
F23.729280514057059
sS'zp'
p1489
F16.078228822878131
sS'zs'
p1490
F17.071069031305264
sS' \xc3'
p1491
F23.729280514057059
sS'3y'
p1492
F23.729280514057059
sS'3~'
p1493
F23.729280514057059
sS'3s'
p1494
F23.729280514057059
sS'3p'
p1495
F23.729280514057059
sS'z@'
p1496
F23.729280514057059
sS'3v'
p1497
F23.729280514057059
sS'3u'
p1498
F23.729280514057059
sS'3t'
p1499
F23.729280514057059
sS'3k'
p1500
F23.729280514057059
sS'3j'
p1501
F23.729280514057059
sS'3i'
p1502
F23.729280514057059
sS'z_'
p1503
F23.729280514057059
sS'3o'
p1504
F23.729280514057059
sS'3n'
p1505
F23.729280514057059
sS'3m'
p1506
F23.729280514057059
sS'3l'
p1507
F23.729280514057059
sS'3c'
p1508
F23.729280514057059
sS'3b'
p1509
F23.729280514057059
sS'3a'
p1510
F23.729280514057059
sS'3g'
p1511
F23.729280514057059
sS'g\xca'
p1512
F23.729280514057059
sS'3e'
p1513
F23.729280514057059
sS'3d'
p1514
F23.729280514057059
sS'z-'
p1515
F23.729280514057059
sS'z/'
p1516
F23.729280514057059
sS' s'
p1517
F16.078228822878131
sS'g\xbe'
p1518
F23.729280514057059
sS'z '
p1519
F23.729280514057059
sS' \xaf'
p1520
F23.729280514057059
sS'g\xb8'
p1521
F23.729280514057059
sS'z?'
p1522
F23.729280514057059
sS'z:'
p1523
F23.729280514057059
sS'z;'
p1524
F23.729280514057059
sS'z4'
p1525
F23.729280514057059
sS' \xb8'
p1526
F23.729280514057059
sS'g\xab'
p1527
F23.729280514057059
sS'z3'
p1528
F23.729280514057059
sS'3;'
p1529
F23.729280514057059
sS' \x83'
p1530
F23.729280514057059
sS' p'
p1531
F23.729280514057059
sS'3?'
p1532
F23.729280514057059
sS'g\x92'
p1533
F23.729280514057059
sS'g\x9f'
p1534
F23.729280514057059
sS'34'
p1535
F23.729280514057059
sS' \x92'
p1536
F23.729280514057059
sS'g\x83'
p1537
F23.729280514057059
sS'3-'
p1538
F23.729280514057059
sS'3#'
p1539
F23.729280514057059
sS'3 '
p1540
F23.729280514057059
sS' \x9f'
p1541
F23.729280514057059
sS'gk'
p1542
F23.729280514057059
sS' v'
p1543
F23.729280514057059
sS's;'
p1544
F23.729280514057059
sS' y'
p1545
F23.729280514057059
sS'l@'
p1546
F23.729280514057059
sS'4\x9f'
p1547
F23.729280514057059
sS'l_'
p1548
F23.729280514057059
sS'lf'
p1549
F15.08182208760214
sS'lg'
p1550
F23.729280514057059
sS'ld'
p1551
F16.078228822878131
sS'le'
p1552
F16.078228822878131
sS'lb'
p1553
F16.078228822878131
sS'lc'
p1554
F23.729280514057059
sS'la'
p1555
F8.4596789577551039
sS'ln'
p1556
F23.729280514057059
sS'lo'
p1557
F12.836737697408507
sS'll'
p1558
F12.040593090834525
sS'lm'
p1559
F15.08182208760214
sS'lj'
p1560
F12.997113088393673
sS'lk'
p1561
F17.071069031305264
sS'lh'
p1562
F16.078228822878131
sS'li'
p1563
F16.078228822878131
sS'lv'
p1564
F17.071069031305264
sS'lt'
p1565
F16.078228822878131
sS'lu'
p1566
F11.38470719146086
sS'ls'
p1567
F16.078228822878131
sS'lp'
p1568
F15.08182208760214
sS'l~'
p1569
F23.729280514057059
sS'lz'
p1570
F17.071069031305264
sS'ly'
p1571
F23.729280514057059
sS'l#'
p1572
F9.3711101084880184
sS'l '
p1573
F23.729280514057059
sS'l/'
p1574
F23.729280514057059
sS'l-'
p1575
F23.729280514057059
sS'l4'
p1576
F23.729280514057059
sS'l3'
p1577
F23.729280514057059
sS'l?'
p1578
F23.729280514057059
sS'l:'
p1579
F23.729280514057059
sS'l;'
p1580
F23.729280514057059
sS'l\xc3'
p1581
F23.729280514057059
sS'l\xca'
p1582
F16.078228822878131
sS'l\xc9'
p1583
F16.078228822878131
sS's_'
p1584
F23.729280514057059
sS'd_'
p1585
F23.729280514057059
sS'l\x83'
p1586
F23.729280514057059
sS'l\x92'
p1587
F23.729280514057059
sS'l\x9f'
p1588
F23.729280514057059
sS'l\xaf'
p1589
F23.729280514057059
sS'l\xab'
p1590
F23.729280514057059
sS'l\xbe'
p1591
F23.729280514057059
sS'l\xb8'
p1592
F23.729280514057059
sS'\x924'
p1593
F23.729280514057059
sS'\x923'
p1594
F23.729280514057059
sS'\x92?'
p1595
F23.729280514057059
sS'\x92:'
p1596
F23.729280514057059
sS'\x92;'
p1597
F23.729280514057059
sS'\x92 '
p1598
F23.729280514057059
sS'\x92#'
p1599
F11.441279624349486
sS'\x92-'
p1600
F23.729280514057059
sS'\x92/'
p1601
F23.729280514057059
sS'\x92t'
p1602
F23.729280514057059
sS'\x92u'
p1603
F10.119524628633355
sS'\x92v'
p1604
F15.08182208760214
sS'\x92p'
p1605
F23.729280514057059
sS'\x92s'
p1606
F23.729280514057059
sS'\x92~'
p1607
F23.729280514057059
sS'\x92y'
p1608
F10.856413287270485
sS'\x92z'
p1609
F14.760613720861851
sS'\x92d'
p1610
F12.277554245982554
sS'\x92e'
p1611
F8.7146933321806053
sS'\x92f'
p1612
F23.729280514057059
sS'\x92g'
p1613
F23.729280514057059
sS'\x92a'
p1614
F8.7103414389199294
sS'\x92b'
p1615
F15.495660837297359
sS'\x92c'
p1616
F23.729280514057059
sS'\x92l'
p1617
F23.729280514057059
sS'\x92m'
p1618
F14.276009880046438
sS'\x92n'
p1619
F16.078228822878131
sS'\x92o'
p1620
F12.836737697408507
sS'\x92h'
p1621
F17.071069031305264
sS'\x92i'
p1622
F8.507957729855022
sS'\x92j'
p1623
F17.071069031305264
sS'\x92k'
p1624
F23.729280514057059
sS'\x92_'
p1625
F23.729280514057059
sS'\x92@'
p1626
F23.729280514057059
sS'\x92\xbe'
p1627
F23.729280514057059
sS'\x92\xb8'
p1628
F23.729280514057059
sS'\x92\xaf'
p1629
F23.729280514057059
sS'\x92\xab'
p1630
F23.729280514057059
sS'\x92\x92'
p1631
F23.729280514057059
sS'\x92\x9f'
p1632
F23.729280514057059
sS'\x92\x83'
p1633
F23.729280514057059
sS'@\xb8'
p1634
F23.729280514057059
sS'\x92\xc3'
p1635
F14.760613720861851
sS'4\xca'
p1636
F23.729280514057059
sS'\x92\xc9'
p1637
F8.7999758659354299
sS'\x92\xca'
p1638
F23.729280514057059
sS'\xb8/'
p1639
F23.729280514057059
sS'\xb8-'
p1640
F23.729280514057059
sS'\xb8#'
p1641
F15.495660837297359
sS'\xb8 '
p1642
F23.729280514057059
sS'4\xc9'
p1643
F23.729280514057059
sS'\xaf@'
p1644
F23.729280514057059
sS'\xb8:'
p1645
F13.62468176049269
sS'\xb8;'
p1646
F23.729280514057059
sS'\xb8?'
p1647
F23.729280514057059
sS'\xb83'
p1648
F23.729280514057059
sS'\xb84'
p1649
F23.729280514057059
sS'\xafo'
p1650
F15.08182208760214
sS'\xafn'
p1651
F9.0246743600844894
sS'\xafm'
p1652
F9.7815522691819456
sS'\xafl'
p1653
F12.226945933859062
sS'\xafk'
p1654
F8.3405568579197009
sS'\xafj'
p1655
F11.062834575242229
sS'\xafi'
p1656
F23.729280514057059
sS'\xafh'
p1657
F12.836737697408507
sS'\xafg'
p1658
F14.760613720861851
sS'\xaff'
p1659
F12.130762703444438
sS'\xafe'
p1660
F23.729280514057059
sS'\xafd'
p1661
F10.277940595917705
sS'\xafc'
p1662
F23.729280514057059
sS'\xafb'
p1663
F12.178052910458772
sS'\xafa'
p1664
F13.762054255221067
sS'4\xc3'
p1665
F23.729280514057059
sS'\xaf~'
p1666
F23.729280514057059
sS'\xafz'
p1667
F9.6674874437321989
sS'\xafy'
p1668
F23.729280514057059
sS'\xafv'
p1669
F11.91509862986678
sS'\xafu'
p1670
F16.078228822878131
sS'\xaft'
p1671
F10.108029905719393
sS'\xafs'
p1672
F9.9663794642820029
sS'\xafp'
p1673
F10.89540214947969
sS'\xb8j'
p1674
F11.107915419742197
sS'\xb8k'
p1675
F11.500161293398467
sS'\xb8h'
p1676
F15.08182208760214
sS'\xb8i'
p1677
F17.071069031305264
sS'\xb8n'
p1678
F11.085198920791385
sS'\xb8o'
p1679
F23.729280514057059
sS'\xb8l'
p1680
F23.729280514057059
sS't~'
p1681
F23.729280514057059
sS'\xb8b'
p1682
F13.499260078351424
sS'\xb8c'
p1683
F23.729280514057059
sS'\xb8a'
p1684
F23.729280514057059
sS'\xb8f'
p1685
F13.913897218243521
sS'\xb8g'
p1686
F17.071069031305264
sS'\xb8d'
p1687
F12.836737697408507
sS'\xb8e'
p1688
F23.729280514057059
sS'\xb8z'
p1689
F10.89540214947969
sS'\xb8y'
p1690
F13.62468176049269
sS'\xb8~'
p1691
F23.729280514057059
sS'\xb8s'
p1692
F12.762775062151318
sS'\xb8p'
p1693
F12.914698048150784
sS'\xb8v'
p1694
F12.130762703444438
sS'\xb8t'
p1695
F11.91509862986678
sS'\xb8u'
p1696
F23.729280514057059
sS'\xaf/'
p1697
F23.729280514057059
sS'\xaf-'
p1698
F23.729280514057059
sS'\xb8@'
p1699
F23.729280514057059
sS'\xaf#'
p1700
F7.3763232753350643
sS'\xaf '
p1701
F23.729280514057059
sS'\xaf?'
p1702
F23.729280514057059
sS'\xaf;'
p1703
F23.729280514057059
sS'\xb8_'
p1704
F23.729280514057059
sS'\xaf4'
p1705
F23.729280514057059
sS'\xaf3'
p1706
F23.729280514057059
sS'\xb8\xab'
p1707
F23.729280514057059
sS'\xaf\xca'
p1708
F9.4706408751549489
sS'\xaf\xc9'
p1709
F6.8992977011454215
sS'\xaf\xc3'
p1710
F17.071069031305264
sS'/;'
p1711
F23.729280514057059
sS'\xb8\xb8'
p1712
F23.729280514057059
sS'\xb8\xbe'
p1713
F23.729280514057059
sS'\xb8\x83'
p1714
F23.729280514057059
sS'\xb8\x9f'
p1715
F23.729280514057059
sS'\xb8\x92'
p1716
F23.729280514057059
sS'\xaf\x83'
p1717
F23.729280514057059
sS'\xaf\x9f'
p1718
F23.729280514057059
sS'\xaf\x92'
p1719
F23.729280514057059
sS'\xaf\xaf'
p1720
F23.729280514057059
sS'\xb8\xc9'
p1721
F9.3171738223516218
sS'\xaf\xab'
p1722
F23.729280514057059
sS'\xb8\xc3'
p1723
F23.729280514057059
sS'\xaf\xbe'
p1724
F23.729280514057059
sS'\xaf\xb8'
p1725
F23.729280514057059
sS'ck'
p1726
F23.729280514057059
sS'cj'
p1727
F23.729280514057059
sS'ci'
p1728
F17.071069031305264
sS'ch'
p1729
F23.729280514057059
sS'co'
p1730
F23.729280514057059
sS'cn'
p1731
F23.729280514057059
sS'cm'
p1732
F23.729280514057059
sS'cl'
p1733
F23.729280514057059
sS'cc'
p1734
F14.276009880046438
sS'cb'
p1735
F23.729280514057059
sS'ca'
p1736
F10.119524628633355
sS'cg'
p1737
F23.729280514057059
sS'cf'
p1738
F23.729280514057059
sS'ce'
p1739
F23.729280514057059
sS'cd'
p1740
F23.729280514057059
sS'cz'
p1741
F23.729280514057059
sS'cy'
p1742
F23.729280514057059
sS'c~'
p1743
F23.729280514057059
sS'cs'
p1744
F23.729280514057059
sS'cp'
p1745
F23.729280514057059
sS'cv'
p1746
F23.729280514057059
sS'cu'
p1747
F13.277039273626242
sS'ct'
p1748
F23.729280514057059
sS'v\xc3'
p1749
F23.729280514057059
sS'v\xc9'
p1750
F10.040920913984783
sS'v\xca'
p1751
F13.277039273626242
sS'c@'
p1752
F23.729280514057059
sS'c_'
p1753
F23.729280514057059
sS'c/'
p1754
F23.729280514057059
sS'c-'
p1755
F23.729280514057059
sS'c#'
p1756
F15.495660837297359
sS'v\xab'
p1757
F23.729280514057059
sS'/\x83'
p1758
F23.729280514057059
sS'v\xaf'
p1759
F23.729280514057059
sS'c;'
p1760
F23.729280514057059
sS'c:'
p1761
F23.729280514057059
sS'c?'
p1762
F23.729280514057059
sS'v\xb8'
p1763
F23.729280514057059
sS'/\x92'
p1764
F23.729280514057059
sS'v\xbe'
p1765
F23.729280514057059
sS'c4'
p1766
F23.729280514057059
sS'/\xaf'
p1767
F23.729280514057059
sS'v\x83'
p1768
F23.729280514057059
sS'/\xab'
p1769
F23.729280514057059
sS'\xbe_'
p1770
F17.071069031305264
sS'/\xbe'
p1771
F23.729280514057059
sS'v\x92'
p1772
F23.729280514057059
sS'/\xb8'
p1773
F23.729280514057059
sS'v\x9f'
p1774
F23.729280514057059
sS'va'
p1775
F8.1487569428242601
sS'vb'
p1776
F14.760613720861851
sS'vc'
p1777
F23.729280514057059
sS'vd'
p1778
F12.277554245982554
sS've'
p1779
F8.9820840551862879
sS'vf'
p1780
F17.071069031305264
sS'vg'
p1781
F14.08362208164835
sS'vh'
p1782
F13.383875267339263
sS'vi'
p1783
F9.4559948426567448
sS'vj'
p1784
F13.62468176049269
sS'vk'
p1785
F12.997113088393673
sS'vl'
p1786
F14.760613720861851
sS'vm'
p1787
F12.762775062151318
sS'vn'
p1788
F15.495660837297359
sS'/@'
p1789
F23.729280514057059
sS'vp'
p1790
F23.729280514057059
sS'tu'
p1791
F9.434300859016135
sS'vs'
p1792
F13.084522921540803
sS'vt'
p1793
F14.498059333345875
sS'vu'
p1794
F10.658991824095381
sS'vv'
p1795
F11.955729167628554
sS'vy'
p1796
F12.440991171876091
sS'vz'
p1797
F13.499260078351424
sS'v~'
p1798
F23.729280514057059
sS'v@'
p1799
F23.729280514057059
sS'c\xca'
p1800
F23.729280514057059
sS'c\xc9'
p1801
F23.729280514057059
sS'/l'
p1802
F23.729280514057059
sS'/k'
p1803
F23.729280514057059
sS'/j'
p1804
F23.729280514057059
sS'/i'
p1805
F23.729280514057059
sS'/h'
p1806
F23.729280514057059
sS'c\xc3'
p1807
F23.729280514057059
sS'3z'
p1808
F23.729280514057059
sS'/e'
p1809
F23.729280514057059
sS'/d'
p1810
F23.729280514057059
sS'/c'
p1811
F23.729280514057059
sS'/b'
p1812
F23.729280514057059
sS'/a'
p1813
F23.729280514057059
sS'/~'
p1814
F23.729280514057059
sS'/z'
p1815
F23.729280514057059
sS'/y'
p1816
F23.729280514057059
sS'/v'
p1817
F23.729280514057059
sS'/u'
p1818
F23.729280514057059
sS'/t'
p1819
F23.729280514057059
sS'/s'
p1820
F23.729280514057059
sS'v_'
p1821
F23.729280514057059
sS'v '
p1822
F23.729280514057059
sS'v#'
p1823
F11.500161293398467
sS'c\xaf'
p1824
F23.729280514057059
sS'v-'
p1825
F23.729280514057059
sS'v/'
p1826
F23.729280514057059
sS'v3'
p1827
F23.729280514057059
sS'v4'
p1828
F23.729280514057059
sS'c\xbe'
p1829
F23.729280514057059
sS'v:'
p1830
F23.729280514057059
sS'v;'
p1831
F23.729280514057059
sS'v?'
p1832
F23.729280514057059
sS'//'
p1833
F23.729280514057059
sS'/-'
p1834
F23.729280514057059
sS'c\x83'
p1835
F23.729280514057059
sS'/#'
p1836
F23.729280514057059
sS'/ '
p1837
F23.729280514057059
sS'/?'
p1838
F23.729280514057059
sS'c\x9f'
p1839
F23.729280514057059
sS'/:'
p1840
F23.729280514057059
sS'c\x92'
p1841
F23.729280514057059
sS'/4'
p1842
F17.071069031305264
sS'/3'
p1843
F23.729280514057059
sS'\xc9l'
p1844
F23.729280514057059
sS'tn'
p1845
F13.913897218243521
sS'tl'
p1846
F16.078228822878131
sS'-n'
p1847
F23.729280514057059
sS'tk'
p1848
F11.530528548863323
sS'th'
p1849
F13.084522921540803
sS'h:'
p1850
F23.729280514057059
sS'h;'
p1851
F23.729280514057059
sS'h?'
p1852
F23.729280514057059
sS'h3'
p1853
F23.729280514057059
sS'4\x92'
p1854
F23.729280514057059
sS'h4'
p1855
F23.729280514057059
sS'h/'
p1856
F23.729280514057059
sS'h-'
p1857
F23.729280514057059
sS'h#'
p1858
F9.5384527169900171
sS'h '
p1859
F23.729280514057059
sS'4\x83'
p1860
F23.729280514057059
sS'4\xbe'
p1861
F23.729280514057059
sS'4\xb8'
p1862
F23.729280514057059
sS'-u'
p1863
F23.729280514057059
sS'4\xaf'
p1864
F23.729280514057059
sS'4\xab'
p1865
F23.729280514057059
sS'hz'
p1866
F13.499260078351424
sS'hy'
p1867
F11.357231688784287
sS'h~'
p1868
F23.729280514057059
sS'-t'
p1869
F23.729280514057059
sS'hs'
p1870
F12.625337084165503
sS'hp'
p1871
F14.498059333345875
sS'hv'
p1872
F13.499260078351424
sS'ht'
p1873
F10.47056727389784
sS'hu'
p1874
F10.71021108472595
sS'hj'
p1875
F14.498059333345875
sS'hk'
p1876
F13.762054255221067
sS'hh'
p1877
F13.084522921540803
sS'hi'
p1878
F9.0409755584194205
sS'hn'
p1879
F14.276009880046438
sS'ho'
p1880
F11.202536771057373
sS'hl'
p1881
F12.836737697408507
sS'hm'
p1882
F12.226945933859062
sS'hb'
p1883
F13.277039273626242
sS'hc'
p1884
F14.276009880046438
sS'ha'
p1885
F7.500443038591798
sS'hf'
p1886
F13.762054255221067
sS'hg'
p1887
F23.729280514057059
sS'hd'
p1888
F12.692420067384013
sS'he'
p1889
F9.8092068449110421
sS'h_'
p1890
F23.729280514057059
sS'te'
p1891
F7.0713899014716102
sS'h@'
p1892
F23.729280514057059
sS'-v'
p1893
F23.729280514057059
sS'h\xb8'
p1894
F23.729280514057059
sS'h\xbe'
p1895
F23.729280514057059
sS'tb'
p1896
F12.997113088393673
sS'h\xab'
p1897
F23.729280514057059
sS'h\xaf'
p1898
F23.729280514057059
sS'4?'
p1899
F23.729280514057059
sS'o#'
p1900
F9.7102979862132432
sS'4:'
p1901
F23.729280514057059
sS'h\x9f'
p1902
F23.729280514057059
sS'h\x92'
p1903
F23.729280514057059
sS'44'
p1904
F23.729280514057059
sS'43'
p1905
F23.729280514057059
sS'4/'
p1906
F23.729280514057059
sS'4-'
p1907
F23.729280514057059
sS'h\x83'
p1908
F23.729280514057059
sS'4#'
p1909
F23.729280514057059
sS'4 '
p1910
F23.729280514057059
sS'4_'
p1911
F23.729280514057059
sS'4g'
p1912
F23.729280514057059
sS'4@'
p1913
F23.729280514057059
sS'4~'
p1914
F23.729280514057059
sS'4z'
p1915
F23.729280514057059
sS'4y'
p1916
F23.729280514057059
sS'4v'
p1917
F23.729280514057059
sS'ta'
p1918
F7.0825952473886309
sS'4t'
p1919
F17.071069031305264
sS'4u'
p1920
F23.729280514057059
sS'4s'
p1921
F23.729280514057059
sS'4p'
p1922
F23.729280514057059
sS'h\xca'
p1923
F13.62468176049269
sS'4o'
p1924
F23.729280514057059
sS'4l'
p1925
F23.729280514057059
sS'h\xc9'
p1926
F9.754417840562839
sS'4j'
p1927
F23.729280514057059
sS'4k'
p1928
F23.729280514057059
sS'4h'
p1929
F23.729280514057059
sS'4i'
p1930
F23.729280514057059
sS'4f'
p1931
F23.729280514057059
sS'h\xc3'
p1932
F13.913897218243521
sS'4d'
p1933
F23.729280514057059
sS'4e'
p1934
F23.729280514057059
sS'4b'
p1935
F23.729280514057059
sS'4c'
p1936
F23.729280514057059
sS'4a'
p1937
F23.729280514057059
s.