(dp1
S'\x83'
F5.7371644814271727
sS'\x92'
F6.6936278331435242
sS'/'
F17.409589823398669
sS'\x9f'
F11.765733633623944
sS' '
F11.79487997928346
sS'#'
F2.312092597655246
sS'\xab'
F5.0408105633573301
sS'-'
F16.409589823398669
sS'\xaf'
F5.472583896882079
sS'3'
F17.409589823398669
sS'4'
F17.409589823398669
sS'\xb8'
F7.993848055108578
sS';'
F17.409589823398669
sS':'
F5.9927922957926079
sS'?'
F17.409589823398669
sS'\xbe'
F4.7020149934716944
sS'@'
F17.409589823398669
sS'\xc3'
F7.993848055108578
sS'\xc9'
F3.4484114737943927
sS'\xca'
F5.1375432990087306
sS'_'
F17.409589823398669
sS'a'
F3.457758736510419
sS'c'
F10.180771132902787
sS'b'
F6.1317212772218275
sS'e'
F4.1234652818653013
sS'd'
F5.3669044511793169
sS'g'
F7.0933082916524475
sS'f'
F6.9147342389074709
sS'i'
F4.4927773256888361
sS'h'
F6.4159437633820717
sS'k'
F4.5168572907868096
sS'j'
F5.9542626030941079
sS'm'
F4.7822839428838204
sS'l'
F7.8416337479832023
sS'o'
F6.0803540816648685
sS'n'
F5.0564429979005858
sS'p'
F6.4929639011874327
sS's'
F5.3879157805402986
sS'u'
F5.7921223581044723
sS't'
F4.5409601551860108
sS'v'
F6.8909366677252777
sS'y'
F6.2074659995682078
sS'z'
F6.4004610338594121
sS'~'
F13.087661728511307
s.