(dp1
S'\x83'
F5.5585346529810638
sS'\x92'
F7.3688532810972909
sS'\xaf'
F6.2169648008358145
sS'\x9f'
F16.225738683277221
sS' '
F14.454256458919136
sS'#'
F1.8373141719635702
sS'\xab'
F5.4144582540510644
sS'-'
F22.087947359205646
sS'/'
F22.513253193938315
sS'3'
F22.513253193938315
sS'4'
F22.513253193938315
sS'\xb8'
F7.6203540028867707
sS':'
F6.3998203029793261
sS'?'
F24.642536210883282
sS'\xbe'
F4.9765708152687402
sS'@'
F26.642536210883282
sS'\xc3'
F7.6203540028867707
sS'\xc9'
F3.8642825807482355
sS'\xca'
F5.1966226489938956
sS'a'
F3.7217981998243155
sS'c'
F13.870221636961627
sS'b'
F5.2247696939088835
sS'e'
F3.9684480606233823
sS'd'
F5.2879537513163353
sS'g'
F7.0086416680307044
sS'f'
F8.028784508895205
sS'i'
F4.4298256594808132
sS'h'
F6.1578824316846035
sS'k'
F4.875679988705703
sS'j'
F5.4726112094409691
sS'm'
F5.2445428131587697
sS'l'
F9.4570412866724158
sS'o'
F5.7601752639676862
sS'n'
F4.7692019367570992
sS'p'
F7.6584668854897133
sS's'
F5.9645826346869359
sS'u'
F5.7029691916261847
sS't'
F5.0254479200550213
sS'v'
F6.4214335478429492
sS'y'
F6.625391381116728
sS'z'
F6.6474122385689238
sS'~'
F15.456731595774823
s.